
========================================================================

** ELF Header Information

    File Name: .\Objects\code.axf

    Machine class: ELFCLASS32 (32-bit)
    Data encoding: ELFDATA2LSB (Little endian)
    Header version: EV_CURRENT (Current version)
    Operating System ABI: none
    ABI Version: 0
    File Type: ET_EXEC (Executable) (2)
    Machine: EM_ARM (ARM)

    Image Entry point: 0x00001091
    Flags: EF_ARM_HASENTRY + EF_ARM_ABI_FLOAT_SOFT (0x05000202)

    ARM ELF revision: 5 (ABI version 2)

    Conforms to Soft float procedure-call standard

    Built with
    Component: ARM Compiler 5.06 update 6 (build 750) Tool: armasm [4d35ec]
    Component: ARM Compiler 5.06 update 6 (build 750) Tool: armlink [4d35ed]

    Header size: 52 bytes (0x34)
    Program header entry size: 32 bytes (0x20)
    Section header entry size: 40 bytes (0x28)

    Program header entries: 1
    Section header entries: 16

    Program header offset: 46944 (0x0000b760)
    Section header offset: 46976 (0x0000b780)

    Section header string table index: 15

========================================================================

** Program header #0

    Type          : PT_LOAD (1)
    File Offset   : 52 (0x34)
    Virtual Addr  : 0x00000000
    Physical Addr : 0x00000000
    Size in file  : 6664 bytes (0x1a08)
    Size in memory: 10448 bytes (0x28d0)
    Flags         : PF_X + PF_W + PF_R + PF_ARM_ENTRY (0x80000007)
    Alignment     : 16


========================================================================

** Section #1

    Name        : ER_RO
    Type        : SHT_PROGBITS (0x00000001)
    Flags       : SHF_ALLOC + SHF_EXECINSTR (0x00000006)
    Addr        : 0x00000000
    File Offset : 52 (0x34)
    Size        : 6568 bytes (0x19a8)
    Link        : SHN_UNDEF
    Info        : 0
    Alignment   : 4
    Entry Size  : 0

    $d.realdata
    RESET
    __Vectors
        0x00000000:    00003ffc    .?..    DCD    16380
        0x00000004:    00001091    ....    DCD    4241
        0x00000008:    00000000    ....    DCD    0
        0x0000000c:    00000000    ....    DCD    0
        0x00000010:    00000000    ....    DCD    0
        0x00000014:    00000000    ....    DCD    0
        0x00000018:    00000000    ....    DCD    0
        0x0000001c:    00000000    ....    DCD    0
        0x00000020:    00000000    ....    DCD    0
        0x00000024:    00000000    ....    DCD    0
        0x00000028:    00000000    ....    DCD    0
        0x0000002c:    00000000    ....    DCD    0
        0x00000030:    00000000    ....    DCD    0
        0x00000034:    00000000    ....    DCD    0
        0x00000038:    00000000    ....    DCD    0
        0x0000003c:    00000000    ....    DCD    0
        0x00000040:    00001095    ....    DCD    4245
        0x00000044:    0000109d    ....    DCD    4253
        0x00000048:    00000000    ....    DCD    0
        0x0000004c:    00000000    ....    DCD    0
        0x00000050:    00000000    ....    DCD    0
        0x00000054:    00000000    ....    DCD    0
        0x00000058:    00000000    ....    DCD    0
        0x0000005c:    00000000    ....    DCD    0
        0x00000060:    00000000    ....    DCD    0
        0x00000064:    00000000    ....    DCD    0
        0x00000068:    00000000    ....    DCD    0
        0x0000006c:    00000000    ....    DCD    0
        0x00000070:    00000000    ....    DCD    0
        0x00000074:    00000000    ....    DCD    0
        0x00000078:    00000000    ....    DCD    0
        0x0000007c:    00000000    ....    DCD    0
    $t
    !!!main
    __main
        0x00000080:    f000f802    ....    BL       __scatterload ; 0x88
        0x00000084:    f000f83d    ..=.    BL       __rt_entry ; 0x102
    !!!scatter
    __scatterload
    __scatterload_rt2
    __scatterload_rt2_thumb_only
        0x00000088:    a00c        ..      ADR      r0,{pc}+0x34 ; 0xbc
        0x0000008a:    c830        0.      LDM      r0!,{r4,r5}
        0x0000008c:    3808        .8      SUBS     r0,r0,#8
        0x0000008e:    1824        $.      ADDS     r4,r4,r0
        0x00000090:    182d        -.      ADDS     r5,r5,r0
        0x00000092:    46a2        .F      MOV      r10,r4
        0x00000094:    1e67        g.      SUBS     r7,r4,#1
        0x00000096:    46ab        .F      MOV      r11,r5
    __scatterload_null
        0x00000098:    4654        TF      MOV      r4,r10
        0x0000009a:    465d        ]F      MOV      r5,r11
        0x0000009c:    42ac        .B      CMP      r4,r5
        0x0000009e:    d101        ..      BNE      0xa4 ; __scatterload_null + 12
        0x000000a0:    f000f82f    ../.    BL       __rt_entry ; 0x102
        0x000000a4:    467e        ~F      MOV      r6,pc
        0x000000a6:    3e0f        .>      SUBS     r6,r6,#0xf
        0x000000a8:    cc0f        ..      LDM      r4!,{r0-r3}
        0x000000aa:    46b6        .F      MOV      lr,r6
        0x000000ac:    2601        .&      MOVS     r6,#1
        0x000000ae:    4233        3B      TST      r3,r6
        0x000000b0:    d000        ..      BEQ      0xb4 ; __scatterload_null + 28
        0x000000b2:    1afb        ..      SUBS     r3,r7,r3
        0x000000b4:    46a2        .F      MOV      r10,r4
        0x000000b6:    46ab        .F      MOV      r11,r5
        0x000000b8:    4333        3C      ORRS     r3,r3,r6
        0x000000ba:    4718        .G      BX       r3
    $d
        0x000000bc:    000018dc    ....    DCD    6364
        0x000000c0:    000018ec    ....    DCD    6380
    $t
    !!handler_zi
    __scatterload_zeroinit
        0x000000c4:    2300        .#      MOVS     r3,#0
        0x000000c6:    2400        .$      MOVS     r4,#0
        0x000000c8:    2500        .%      MOVS     r5,#0
        0x000000ca:    2600        .&      MOVS     r6,#0
        0x000000cc:    3a10        .:      SUBS     r2,r2,#0x10
        0x000000ce:    d301        ..      BCC      0xd4 ; __scatterload_zeroinit + 16
        0x000000d0:    c178        x.      STM      r1!,{r3-r6}
        0x000000d2:    d8fb        ..      BHI      0xcc ; __scatterload_zeroinit + 8
        0x000000d4:    0752        R.      LSLS     r2,r2,#29
        0x000000d6:    d300        ..      BCC      0xda ; __scatterload_zeroinit + 22
        0x000000d8:    c130        0.      STM      r1!,{r4,r5}
        0x000000da:    d500        ..      BPL      0xde ; __scatterload_zeroinit + 26
        0x000000dc:    600b        .`      STR      r3,[r1,#0]
        0x000000de:    4770        pG      BX       lr
    .ARM.Collect$$_printf_percent$$00000000
    _printf_percent
        0x000000e0:    b510        ..      PUSH     {r4,lr}
    .ARM.Collect$$_printf_percent$$00000009
    _printf_d
        0x000000e2:    2964        d)      CMP      r1,#0x64
        0x000000e4:    d102        ..      BNE      _printf_c ; 0xec
        0x000000e6:    f001f9a9    ....    BL       _printf_int_dec ; 0x143c
        0x000000ea:    bd10        ..      POP      {r4,pc}
    .ARM.Collect$$_printf_percent$$00000013
    _printf_c
        0x000000ec:    2963        c)      CMP      r1,#0x63
        0x000000ee:    d102        ..      BNE      _printf_percent_end ; 0xf6
        0x000000f0:    f001faed    ....    BL       _printf_char ; 0x16ce
        0x000000f4:    bd10        ..      POP      {r4,pc}
    .ARM.Collect$$_printf_percent$$00000017
    _printf_percent_end
        0x000000f6:    2000        .       MOVS     r0,#0
        0x000000f8:    bd10        ..      POP      {r4,pc}
    .ARM.Collect$$libinit$$00000000
    __rt_lib_init
        0x000000fa:    b51f        ..      PUSH     {r0-r4,lr}
    .ARM.Collect$$libinit$$00000002
    .ARM.Collect$$libinit$$00000004
    .ARM.Collect$$libinit$$0000000A
    .ARM.Collect$$libinit$$0000000C
    .ARM.Collect$$libinit$$0000000E
    .ARM.Collect$$libinit$$00000011
    .ARM.Collect$$libinit$$00000013
    .ARM.Collect$$libinit$$00000015
    .ARM.Collect$$libinit$$00000017
    .ARM.Collect$$libinit$$00000019
    .ARM.Collect$$libinit$$0000001B
    .ARM.Collect$$libinit$$0000001D
    .ARM.Collect$$libinit$$0000001F
    .ARM.Collect$$libinit$$00000021
    .ARM.Collect$$libinit$$00000023
    .ARM.Collect$$libinit$$00000025
    .ARM.Collect$$libinit$$0000002C
    .ARM.Collect$$libinit$$0000002E
    .ARM.Collect$$libinit$$00000030
    .ARM.Collect$$libinit$$00000032
    .ARM.Collect$$libinit$$00000033
    __rt_lib_init_alloca_1
    __rt_lib_init_argv_1
    __rt_lib_init_atexit_1
    __rt_lib_init_clock_1
    __rt_lib_init_cpp_1
    __rt_lib_init_exceptions_1
    __rt_lib_init_fp_1
    __rt_lib_init_fp_trap_1
    __rt_lib_init_getenv_1
    __rt_lib_init_heap_1
    __rt_lib_init_lc_collate_1
    __rt_lib_init_lc_ctype_1
    __rt_lib_init_lc_monetary_1
    __rt_lib_init_lc_numeric_1
    __rt_lib_init_lc_time_1
    __rt_lib_init_preinit_1
    __rt_lib_init_rand_1
    __rt_lib_init_return
    __rt_lib_init_signal_1
    __rt_lib_init_stdio_1
    __rt_lib_init_user_alloc_1
        0x000000fc:    bd1f        ..      POP      {r0-r4,pc}
    .ARM.Collect$$libshutdown$$00000000
    __rt_lib_shutdown
        0x000000fe:    b510        ..      PUSH     {r4,lr}
    .ARM.Collect$$libshutdown$$00000002
    .ARM.Collect$$libshutdown$$00000004
    .ARM.Collect$$libshutdown$$00000007
    .ARM.Collect$$libshutdown$$0000000A
    .ARM.Collect$$libshutdown$$0000000C
    .ARM.Collect$$libshutdown$$0000000F
    .ARM.Collect$$libshutdown$$00000010
    __rt_lib_shutdown_cpp_1
    __rt_lib_shutdown_fp_trap_1
    __rt_lib_shutdown_heap_1
    __rt_lib_shutdown_return
    __rt_lib_shutdown_signal_1
    __rt_lib_shutdown_stdio_1
    __rt_lib_shutdown_user_alloc_1
        0x00000100:    bd10        ..      POP      {r4,pc}
    .ARM.Collect$$rtentry$$00000000
    .ARM.Collect$$rtentry$$00000002
    .ARM.Collect$$rtentry$$00000004
    __rt_entry
    __rt_entry_presh_1
    __rt_entry_sh
        0x00000102:    f001fb31    ..1.    BL       __user_setup_stackheap ; 0x1768
        0x00000106:    4611        .F      MOV      r1,r2
    .ARM.Collect$$rtentry$$00000009
    .ARM.Collect$$rtentry$$0000000A
    __rt_entry_li
    __rt_entry_postsh_1
        0x00000108:    f7fffff7    ....    BL       __rt_lib_init ; 0xfa
    .ARM.Collect$$rtentry$$0000000C
    .ARM.Collect$$rtentry$$0000000D
    __rt_entry_main
    __rt_entry_postli_1
        0x0000010c:    f000ff37    ..7.    BL       main ; 0xf7e
        0x00000110:    f001fb49    ..I.    BL       exit ; 0x17a6
    .ARM.Collect$$rtexit$$00000000
    __rt_exit
        0x00000114:    b403        ..      PUSH     {r0,r1}
    .ARM.Collect$$rtexit$$00000002
    .ARM.Collect$$rtexit$$00000003
    __rt_exit_ls
    __rt_exit_prels_1
        0x00000116:    f7fffff2    ....    BL       __rt_lib_shutdown ; 0xfe
    .ARM.Collect$$rtexit$$00000004
    __rt_exit_exit
        0x0000011a:    bc03        ..      POP      {r0,r1}
        0x0000011c:    f001f91c    ....    BL       _sys_exit ; 0x1358
    .text
    boundary_hit
        0x00000120:    b5ff        ..      PUSH     {r0-r7,lr}
        0x00000122:    b081        ..      SUB      sp,sp,#4
        0x00000124:    4606        .F      MOV      r6,r0
        0x00000126:    460f        .F      MOV      r7,r1
        0x00000128:    4634        4F      MOV      r4,r6
        0x0000012a:    e039        9.      B        0x1a0 ; boundary_hit + 128
        0x0000012c:    463d        =F      MOV      r5,r7
        0x0000012e:    e033        3.      B        0x198 ; boundary_hit + 120
        0x00000130:    48be        .H      LDR      r0,[pc,#760] ; [0x42c] = 0x1a14
        0x00000132:    6800        .h      LDR      r0,[r0,#0]
        0x00000134:    42a0        .B      CMP      r0,r4
        0x00000136:    d115        ..      BNE      0x164 ; boundary_hit + 68
        0x00000138:    48bd        .H      LDR      r0,[pc,#756] ; [0x430] = 0x1b94
        0x0000013a:    6900        .i      LDR      r0,[r0,#0x10]
        0x0000013c:    42a8        .B      CMP      r0,r5
        0x0000013e:    d111        ..      BNE      0x164 ; boundary_hit + 68
        0x00000140:    48bc        .H      LDR      r0,[pc,#752] ; [0x434] = 0x19bc
        0x00000142:    6800        .h      LDR      r0,[r0,#0]
        0x00000144:    1d40        @.      ADDS     r0,r0,#5
        0x00000146:    49bb        .I      LDR      r1,[pc,#748] ; [0x434] = 0x19bc
        0x00000148:    6008        .`      STR      r0,[r1,#0]
        0x0000014a:    48bb        .H      LDR      r0,[pc,#748] ; [0x438] = 0x19b8
        0x0000014c:    6802        .h      LDR      r2,[r0,#0]
        0x0000014e:    4608        .F      MOV      r0,r1
        0x00000150:    6801        .h      LDR      r1,[r0,#0]
        0x00000152:    48ba        .H      LDR      r0,[pc,#744] ; [0x43c] = 0x180c
        0x00000154:    f001f904    ....    BL       __2printf ; 0x1360
        0x00000158:    a0b9        ..      ADR      r0,{pc}+0x2e8 ; 0x440
        0x0000015a:    f001f901    ....    BL       __2printf ; 0x1360
        0x0000015e:    2001        .       MOVS     r0,#1
        0x00000160:    b005        ..      ADD      sp,sp,#0x14
        0x00000162:    bdf0        ..      POP      {r4-r7,pc}
        0x00000164:    48bc        .H      LDR      r0,[pc,#752] ; [0x458] = 0x1d3c
        0x00000166:    6800        .h      LDR      r0,[r0,#0]
        0x00000168:    42a0        .B      CMP      r0,r4
        0x0000016a:    d114        ..      BNE      0x196 ; boundary_hit + 118
        0x0000016c:    48bb        .H      LDR      r0,[pc,#748] ; [0x45c] = 0x1ebc
        0x0000016e:    6900        .i      LDR      r0,[r0,#0x10]
        0x00000170:    42a8        .B      CMP      r0,r5
        0x00000172:    d110        ..      BNE      0x196 ; boundary_hit + 118
        0x00000174:    48b0        .H      LDR      r0,[pc,#704] ; [0x438] = 0x19b8
        0x00000176:    6800        .h      LDR      r0,[r0,#0]
        0x00000178:    1d40        @.      ADDS     r0,r0,#5
        0x0000017a:    49af        .I      LDR      r1,[pc,#700] ; [0x438] = 0x19b8
        0x0000017c:    6008        .`      STR      r0,[r1,#0]
        0x0000017e:    48ad        .H      LDR      r0,[pc,#692] ; [0x434] = 0x19bc
        0x00000180:    6802        .h      LDR      r2,[r0,#0]
        0x00000182:    4608        .F      MOV      r0,r1
        0x00000184:    6801        .h      LDR      r1,[r0,#0]
        0x00000186:    48b6        .H      LDR      r0,[pc,#728] ; [0x460] = 0x193c
        0x00000188:    f001f8ea    ....    BL       __2printf ; 0x1360
        0x0000018c:    a0ac        ..      ADR      r0,{pc}+0x2b4 ; 0x440
        0x0000018e:    f001f8e7    ....    BL       __2printf ; 0x1360
        0x00000192:    2001        .       MOVS     r0,#1
        0x00000194:    e7e4        ..      B        0x160 ; boundary_hit + 64
        0x00000196:    1c6d        m.      ADDS     r5,r5,#1
        0x00000198:    9804        ..      LDR      r0,[sp,#0x10]
        0x0000019a:    4285        .B      CMP      r5,r0
        0x0000019c:    ddc8        ..      BLE      0x130 ; boundary_hit + 16
        0x0000019e:    1c64        d.      ADDS     r4,r4,#1
        0x000001a0:    9803        ..      LDR      r0,[sp,#0xc]
        0x000001a2:    4284        .B      CMP      r4,r0
        0x000001a4:    ddc2        ..      BLE      0x12c ; boundary_hit + 12
        0x000001a6:    2000        .       MOVS     r0,#0
        0x000001a8:    e7da        ..      B        0x160 ; boundary_hit + 64
    Game_Init
        0x000001aa:    b538        8.      PUSH     {r3-r5,lr}
        0x000001ac:    f001f803    ....    BL       clear_screen ; 0x11b6
        0x000001b0:    2003        .       MOVS     r0,#3
        0x000001b2:    2306        .#      MOVS     r3,#6
        0x000001b4:    2260        `"      MOVS     r2,#0x60
        0x000001b6:    2105        .!      MOVS     r1,#5
        0x000001b8:    9000        ..      STR      r0,[sp,#0]
        0x000001ba:    4608        .F      MOV      r0,r1
        0x000001bc:    f001f854    ..T.    BL       rectangle ; 0x1268
        0x000001c0:    2003        .       MOVS     r0,#3
        0x000001c2:    2374        t#      MOVS     r3,#0x74
        0x000001c4:    2206        ."      MOVS     r2,#6
        0x000001c6:    2105        .!      MOVS     r1,#5
        0x000001c8:    9000        ..      STR      r0,[sp,#0]
        0x000001ca:    4608        .F      MOV      r0,r1
        0x000001cc:    f001f84c    ..L.    BL       rectangle ; 0x1268
        0x000001d0:    2003        .       MOVS     r0,#3
        0x000001d2:    2375        u#      MOVS     r3,#0x75
        0x000001d4:    2260        `"      MOVS     r2,#0x60
        0x000001d6:    2174        t!      MOVS     r1,#0x74
        0x000001d8:    9000        ..      STR      r0,[sp,#0]
        0x000001da:    2005        .       MOVS     r0,#5
        0x000001dc:    f001f844    ..D.    BL       rectangle ; 0x1268
        0x000001e0:    2003        .       MOVS     r0,#3
        0x000001e2:    2375        u#      MOVS     r3,#0x75
        0x000001e4:    2261        a"      MOVS     r2,#0x61
        0x000001e6:    2105        .!      MOVS     r1,#5
        0x000001e8:    9000        ..      STR      r0,[sp,#0]
        0x000001ea:    2060        `       MOVS     r0,#0x60
        0x000001ec:    f001f83c    ..<.    BL       rectangle ; 0x1268
        0x000001f0:    2000        .       MOVS     r0,#0
        0x000001f2:    4991        .I      LDR      r1,[pc,#580] ; [0x438] = 0x19b8
        0x000001f4:    6008        .`      STR      r0,[r1,#0]
        0x000001f6:    498f        .I      LDR      r1,[pc,#572] ; [0x434] = 0x19bc
        0x000001f8:    6008        .`      STR      r0,[r1,#0]
        0x000001fa:    488f        .H      LDR      r0,[pc,#572] ; [0x438] = 0x19b8
        0x000001fc:    6800        .h      LDR      r0,[r0,#0]
        0x000001fe:    0080        ..      LSLS     r0,r0,#2
        0x00000200:    4998        .I      LDR      r1,[pc,#608] ; [0x464] = 0x19d0
        0x00000202:    5808        .X      LDR      r0,[r1,r0]
        0x00000204:    4998        .I      LDR      r1,[pc,#608] ; [0x468] = 0x19cc
        0x00000206:    6008        .`      STR      r0,[r1,#0]
        0x00000208:    4608        .F      MOV      r0,r1
        0x0000020a:    6801        .h      LDR      r1,[r0,#0]
        0x0000020c:    4897        .H      LDR      r0,[pc,#604] ; [0x46c] = 0x2faf08
        0x0000020e:    f001f955    ..U.    BL       __aeabi_idiv ; 0x14bc
        0x00000212:    4604        .F      MOV      r4,r0
        0x00000214:    2201        ."      MOVS     r2,#1
        0x00000216:    2110        .!      MOVS     r1,#0x10
        0x00000218:    f000ff63    ..c.    BL       timer_init ; 0x10e2
        0x0000021c:    f000ff75    ..u.    BL       timer_enable ; 0x110a
        0x00000220:    2001        .       MOVS     r0,#1
        0x00000222:    4993        .I      LDR      r1,[pc,#588] ; [0x470] = 0x1a08
        0x00000224:    6088        .`      STR      r0,[r1,#8]
        0x00000226:    4993        .I      LDR      r1,[pc,#588] ; [0x474] = 0x1d14
        0x00000228:    6248        Hb      STR      r0,[r1,#0x24]
        0x0000022a:    203c        <       MOVS     r0,#0x3c
        0x0000022c:    497f        .I      LDR      r1,[pc,#508] ; [0x42c] = 0x1a14
        0x0000022e:    6008        .`      STR      r0,[r1,#0]
        0x00000230:    2150        P!      MOVS     r1,#0x50
        0x00000232:    487f        .H      LDR      r0,[pc,#508] ; [0x430] = 0x1b94
        0x00000234:    6101        .a      STR      r1,[r0,#0x10]
        0x00000236:    203e        >       MOVS     r0,#0x3e
        0x00000238:    497c        |I      LDR      r1,[pc,#496] ; [0x42c] = 0x1a14
        0x0000023a:    6048        H`      STR      r0,[r1,#4]
        0x0000023c:    2150        P!      MOVS     r1,#0x50
        0x0000023e:    487c        |H      LDR      r0,[pc,#496] ; [0x430] = 0x1b94
        0x00000240:    3010        .0      ADDS     r0,r0,#0x10
        0x00000242:    6041        A`      STR      r1,[r0,#4]
        0x00000244:    2104        .!      MOVS     r1,#4
        0x00000246:    488b        .H      LDR      r0,[pc,#556] ; [0x474] = 0x1d14
        0x00000248:    6201        .b      STR      r1,[r0,#0x20]
        0x0000024a:    2001        .       MOVS     r0,#1
        0x0000024c:    498a        .I      LDR      r1,[pc,#552] ; [0x478] = 0x203c
        0x0000024e:    6248        Hb      STR      r0,[r1,#0x24]
        0x00000250:    2050        P       MOVS     r0,#0x50
        0x00000252:    4981        .I      LDR      r1,[pc,#516] ; [0x458] = 0x1d3c
        0x00000254:    6008        .`      STR      r0,[r1,#0]
        0x00000256:    2164        d!      MOVS     r1,#0x64
        0x00000258:    4880        .H      LDR      r0,[pc,#512] ; [0x45c] = 0x1ebc
        0x0000025a:    6101        .a      STR      r1,[r0,#0x10]
        0x0000025c:    2052        R       MOVS     r0,#0x52
        0x0000025e:    497e        ~I      LDR      r1,[pc,#504] ; [0x458] = 0x1d3c
        0x00000260:    6048        H`      STR      r0,[r1,#4]
        0x00000262:    2164        d!      MOVS     r1,#0x64
        0x00000264:    487d        }H      LDR      r0,[pc,#500] ; [0x45c] = 0x1ebc
        0x00000266:    3010        .0      ADDS     r0,r0,#0x10
        0x00000268:    6041        A`      STR      r1,[r0,#4]
        0x0000026a:    2004        .       MOVS     r0,#4
        0x0000026c:    4982        .I      LDR      r1,[pc,#520] ; [0x478] = 0x203c
        0x0000026e:    6208        .b      STR      r0,[r1,#0x20]
        0x00000270:    2000        .       MOVS     r0,#0
        0x00000272:    4982        .I      LDR      r1,[pc,#520] ; [0x47c] = 0x19c0
        0x00000274:    6008        .`      STR      r0,[r1,#0]
        0x00000276:    a082        ..      ADR      r0,{pc}+0x20a ; 0x480
        0x00000278:    f001f872    ..r.    BL       __2printf ; 0x1360
        0x0000027c:    a088        ..      ADR      r0,{pc}+0x224 ; 0x4a0
        0x0000027e:    f001f86f    ..o.    BL       __2printf ; 0x1360
        0x00000282:    a08f        ..      ADR      r0,{pc}+0x23e ; 0x4c0
        0x00000284:    f001f86c    ..l.    BL       __2printf ; 0x1360
        0x00000288:    a095        ..      ADR      r0,{pc}+0x258 ; 0x4e0
        0x0000028a:    f001f869    ..i.    BL       __2printf ; 0x1360
        0x0000028e:    a09b        ..      ADR      r0,{pc}+0x26e ; 0x4fc
        0x00000290:    f001f866    ..f.    BL       __2printf ; 0x1360
        0x00000294:    a0a1        ..      ADR      r0,{pc}+0x288 ; 0x51c
        0x00000296:    f001f863    ..c.    BL       __2printf ; 0x1360
        0x0000029a:    a0a8        ..      ADR      r0,{pc}+0x2a2 ; 0x53c
        0x0000029c:    f001f860    ..`.    BL       __2printf ; 0x1360
        0x000002a0:    a0ae        ..      ADR      r0,{pc}+0x2bc ; 0x55c
        0x000002a2:    f001f85d    ..].    BL       __2printf ; 0x1360
        0x000002a6:    a0b5        ..      ADR      r0,{pc}+0x2d6 ; 0x57c
        0x000002a8:    f001f85a    ..Z.    BL       __2printf ; 0x1360
        0x000002ac:    a0ba        ..      ADR      r0,{pc}+0x2ec ; 0x598
        0x000002ae:    f001f857    ..W.    BL       __2printf ; 0x1360
        0x000002b2:    a0c1        ..      ADR      r0,{pc}+0x306 ; 0x5b8
        0x000002b4:    f001f854    ..T.    BL       __2printf ; 0x1360
        0x000002b8:    a0c7        ..      ADR      r0,{pc}+0x320 ; 0x5d8
        0x000002ba:    f001f851    ..Q.    BL       __2printf ; 0x1360
        0x000002be:    a0ce        ..      ADR      r0,{pc}+0x33a ; 0x5f8
        0x000002c0:    f001f84e    ..N.    BL       __2printf ; 0x1360
        0x000002c4:    a0d4        ..      ADR      r0,{pc}+0x354 ; 0x618
        0x000002c6:    f001f84b    ..K.    BL       __2printf ; 0x1360
        0x000002ca:    a0db        ..      ADR      r0,{pc}+0x36e ; 0x638
        0x000002cc:    f001f848    ..H.    BL       __2printf ; 0x1360
        0x000002d0:    a0e1        ..      ADR      r0,{pc}+0x388 ; 0x658
        0x000002d2:    f001f845    ..E.    BL       __2printf ; 0x1360
        0x000002d6:    a0e8        ..      ADR      r0,{pc}+0x3a2 ; 0x678
        0x000002d8:    f001f842    ..B.    BL       __2printf ; 0x1360
        0x000002dc:    a0ee        ..      ADR      r0,{pc}+0x3bc ; 0x698
        0x000002de:    f001f83f    ..?.    BL       __2printf ; 0x1360
        0x000002e2:    a0f5        ..      ADR      r0,{pc}+0x3d6 ; 0x6b8
        0x000002e4:    f001f83c    ..<.    BL       __2printf ; 0x1360
        0x000002e8:    a0d3        ..      ADR      r0,{pc}+0x350 ; 0x638
        0x000002ea:    f001f839    ..9.    BL       __2printf ; 0x1360
        0x000002ee:    a0f9        ..      ADR      r0,{pc}+0x3e6 ; 0x6d4
        0x000002f0:    f001f836    ..6.    BL       __2printf ; 0x1360
        0x000002f4:    bf00        ..      NOP      
        0x000002f6:    f001f80c    ....    BL       KBHIT ; 0x1312
        0x000002fa:    2800        .(      CMP      r0,#0
        0x000002fc:    d0fb        ..      BEQ      0x2f6 ; Game_Init + 332
        0x000002fe:    2000        .       MOVS     r0,#0
        0x00000300:    f000feb4    ....    BL       NVIC_EnableIRQ ; 0x106c
        0x00000304:    2001        .       MOVS     r0,#1
        0x00000306:    f000feb1    ....    BL       NVIC_EnableIRQ ; 0x106c
        0x0000030a:    bd38        8.      POP      {r3-r5,pc}
    Game_Close
        0x0000030c:    b510        ..      PUSH     {r4,lr}
        0x0000030e:    f000ff52    ..R.    BL       clear_screen ; 0x11b6
        0x00000312:    2000        .       MOVS     r0,#0
        0x00000314:    4948        HI      LDR      r1,[pc,#288] ; [0x438] = 0x19b8
        0x00000316:    6008        .`      STR      r0,[r1,#0]
        0x00000318:    4946        FI      LDR      r1,[pc,#280] ; [0x434] = 0x19bc
        0x0000031a:    6008        .`      STR      r0,[r1,#0]
        0x0000031c:    a0f4        ..      ADR      r0,{pc}+0x3d4 ; 0x6f0
        0x0000031e:    f001f81f    ....    BL       __2printf ; 0x1360
        0x00000322:    a0f3        ..      ADR      r0,{pc}+0x3ce ; 0x6f0
        0x00000324:    f001f81c    ....    BL       __2printf ; 0x1360
        0x00000328:    2000        .       MOVS     r0,#0
        0x0000032a:    f000fea6    ....    BL       NVIC_DisableIRQ ; 0x107a
        0x0000032e:    2001        .       MOVS     r0,#1
        0x00000330:    f000fea3    ....    BL       NVIC_DisableIRQ ; 0x107a
        0x00000334:    bd10        ..      POP      {r4,pc}
    target_gen
        0x00000336:    b510        ..      PUSH     {r4,lr}
        0x00000338:    215e        ^!      MOVS     r1,#0x5e
        0x0000033a:    2007        .       MOVS     r0,#7
        0x0000033c:    f000ffbb    ....    BL       random ; 0x12b6
        0x00000340:    494b        KI      LDR      r1,[pc,#300] ; [0x470] = 0x1a08
        0x00000342:    6008        .`      STR      r0,[r1,#0]
        0x00000344:    6808        .h      LDR      r0,[r1,#0]
        0x00000346:    0fc1        ..      LSRS     r1,r0,#31
        0x00000348:    1809        ..      ADDS     r1,r1,r0
        0x0000034a:    1049        I.      ASRS     r1,r1,#1
        0x0000034c:    0049        I.      LSLS     r1,r1,#1
        0x0000034e:    1a41        A.      SUBS     r1,r0,r1
        0x00000350:    4a47        GJ      LDR      r2,[pc,#284] ; [0x470] = 0x1a08
        0x00000352:    6812        .h      LDR      r2,[r2,#0]
        0x00000354:    1a51        Q.      SUBS     r1,r2,r1
        0x00000356:    4a46        FJ      LDR      r2,[pc,#280] ; [0x470] = 0x1a08
        0x00000358:    6011        .`      STR      r1,[r2,#0]
        0x0000035a:    4611        .F      MOV      r1,r2
        0x0000035c:    6809        .h      LDR      r1,[r1,#0]
        0x0000035e:    226f        o"      MOVS     r2,#0x6f
        0x00000360:    4351        QC      MULS     r1,r2,r1
        0x00000362:    4608        .F      MOV      r0,r1
        0x00000364:    f000ffa1    ....    BL       delay ; 0x12aa
        0x00000368:    2172        r!      MOVS     r1,#0x72
        0x0000036a:    2007        .       MOVS     r0,#7
        0x0000036c:    f000ffa3    ....    BL       random ; 0x12b6
        0x00000370:    493f        ?I      LDR      r1,[pc,#252] ; [0x470] = 0x1a08
        0x00000372:    6048        H`      STR      r0,[r1,#4]
        0x00000374:    6848        Hh      LDR      r0,[r1,#4]
        0x00000376:    0fc1        ..      LSRS     r1,r0,#31
        0x00000378:    1809        ..      ADDS     r1,r1,r0
        0x0000037a:    1049        I.      ASRS     r1,r1,#1
        0x0000037c:    0049        I.      LSLS     r1,r1,#1
        0x0000037e:    1a41        A.      SUBS     r1,r0,r1
        0x00000380:    4a3b        ;J      LDR      r2,[pc,#236] ; [0x470] = 0x1a08
        0x00000382:    6852        Rh      LDR      r2,[r2,#4]
        0x00000384:    1a51        Q.      SUBS     r1,r2,r1
        0x00000386:    4a3a        :J      LDR      r2,[pc,#232] ; [0x470] = 0x1a08
        0x00000388:    6051        Q`      STR      r1,[r2,#4]
        0x0000038a:    2000        .       MOVS     r0,#0
        0x0000038c:    4611        .F      MOV      r1,r2
        0x0000038e:    6088        .`      STR      r0,[r1,#8]
        0x00000390:    bd10        ..      POP      {r4,pc}
    GameOver
        0x00000392:    b510        ..      PUSH     {r4,lr}
        0x00000394:    2001        .       MOVS     r0,#1
        0x00000396:    f000fe70    ..p.    BL       NVIC_DisableIRQ ; 0x107a
        0x0000039a:    2000        .       MOVS     r0,#0
        0x0000039c:    f000fe6d    ..m.    BL       NVIC_DisableIRQ ; 0x107a
        0x000003a0:    a0d9        ..      ADR      r0,{pc}+0x368 ; 0x708
        0x000003a2:    f000ffdd    ....    BL       __2printf ; 0x1360
        0x000003a6:    a0dc        ..      ADR      r0,{pc}+0x372 ; 0x718
        0x000003a8:    f000ffda    ....    BL       __2printf ; 0x1360
        0x000003ac:    a0df        ..      ADR      r0,{pc}+0x380 ; 0x72c
        0x000003ae:    f000ffd7    ....    BL       __2printf ; 0x1360
        0x000003b2:    e012        ..      B        0x3da ; GameOver + 72
        0x000003b4:    bf00        ..      NOP      
        0x000003b6:    f000ffac    ....    BL       KBHIT ; 0x1312
        0x000003ba:    2800        .(      CMP      r0,#0
        0x000003bc:    d0fb        ..      BEQ      0x3b6 ; GameOver + 36
        0x000003be:    f000ffa3    ....    BL       UartGetc ; 0x1308
        0x000003c2:    4604        .F      MOV      r4,r0
        0x000003c4:    2c72        r,      CMP      r4,#0x72
        0x000003c6:    d101        ..      BNE      0x3cc ; GameOver + 58
        0x000003c8:    2001        .       MOVS     r0,#1
        0x000003ca:    bd10        ..      POP      {r4,pc}
        0x000003cc:    2c71        q,      CMP      r4,#0x71
        0x000003ce:    d101        ..      BNE      0x3d4 ; GameOver + 66
        0x000003d0:    2000        .       MOVS     r0,#0
        0x000003d2:    e7fa        ..      B        0x3ca ; GameOver + 56
        0x000003d4:    a0db        ..      ADR      r0,{pc}+0x370 ; 0x744
        0x000003d6:    f000ffc3    ....    BL       __2printf ; 0x1360
        0x000003da:    e7eb        ..      B        0x3b4 ; GameOver + 34
    UART_ISR
        0x000003dc:    b510        ..      PUSH     {r4,lr}
        0x000003de:    f000ff93    ....    BL       UartGetc ; 0x1308
        0x000003e2:    49df        .I      LDR      r1,[pc,#892] ; [0x760] = 0x19b4
        0x000003e4:    7008        .p      STRB     r0,[r1,#0]
        0x000003e6:    4608        .F      MOV      r0,r1
        0x000003e8:    7801        .x      LDRB     r1,[r0,#0]
        0x000003ea:    a0de        ..      ADR      r0,{pc}+0x37a ; 0x764
        0x000003ec:    f000ffb8    ....    BL       __2printf ; 0x1360
        0x000003f0:    48dd        .H      LDR      r0,[pc,#884] ; [0x768] = 0x19c4
        0x000003f2:    6800        .h      LDR      r0,[r0,#0]
        0x000003f4:    2801        .(      CMP      r0,#1
        0x000003f6:    d10a        ..      BNE      0x40e ; UART_ISR + 50
        0x000003f8:    48d9        .H      LDR      r0,[pc,#868] ; [0x760] = 0x19b4
        0x000003fa:    7800        .x      LDRB     r0,[r0,#0]
        0x000003fc:    2877        w(      CMP      r0,#0x77
        0x000003fe:    d107        ..      BNE      0x410 ; UART_ISR + 52
        0x00000400:    481c        .H      LDR      r0,[pc,#112] ; [0x474] = 0x1d14
        0x00000402:    6a40        @j      LDR      r0,[r0,#0x24]
        0x00000404:    2804        .(      CMP      r0,#4
        0x00000406:    d003        ..      BEQ      0x410 ; UART_ISR + 52
        0x00000408:    2003        .       MOVS     r0,#3
        0x0000040a:    491a        .I      LDR      r1,[pc,#104] ; [0x474] = 0x1d14
        0x0000040c:    6248        Hb      STR      r0,[r1,#0x24]
        0x0000040e:    e1c4        ..      B        0x79a ; UART_ISR + 958
        0x00000410:    48d3        .H      LDR      r0,[pc,#844] ; [0x760] = 0x19b4
        0x00000412:    7800        .x      LDRB     r0,[r0,#0]
        0x00000414:    2864        d(      CMP      r0,#0x64
        0x00000416:    d107        ..      BNE      0x428 ; UART_ISR + 76
        0x00000418:    4816        .H      LDR      r0,[pc,#88] ; [0x474] = 0x1d14
        0x0000041a:    6a40        @j      LDR      r0,[r0,#0x24]
        0x0000041c:    2802        .(      CMP      r0,#2
        0x0000041e:    d003        ..      BEQ      0x428 ; UART_ISR + 76
        0x00000420:    2001        .       MOVS     r0,#1
        0x00000422:    4914        .I      LDR      r1,[pc,#80] ; [0x474] = 0x1d14
        0x00000424:    6248        Hb      STR      r0,[r1,#0x24]
        0x00000426:    e1b8        ..      B        0x79a ; UART_ISR + 958
        0x00000428:    e1a0        ..      B        0x76c ; UART_ISR + 912
    $d
        0x0000042a:    0000        ..      DCW    0
        0x0000042c:    00001a14    ....    DCD    6676
        0x00000430:    00001b94    ....    DCD    7060
        0x00000434:    000019bc    ....    DCD    6588
        0x00000438:    000019b8    ....    DCD    6584
        0x0000043c:    0000180c    ....    DCD    6156
        0x00000440:    504f4f0a    .OOP    DCD    1347374858
        0x00000444:    21535350    PSS!    DCD    559108944
        0x00000448:    756f4220     Bou    DCD    1970225696
        0x0000044c:    7261646e    ndar    DCD    1918985326
        0x00000450:    69482079    y Hi    DCD    1766334585
        0x00000454:    00002174    t!..    DCD    8564
        0x00000458:    00001d3c    <...    DCD    7484
        0x0000045c:    00001ebc    ....    DCD    7868
        0x00000460:    0000193c    <...    DCD    6460
        0x00000464:    000019d0    ....    DCD    6608
        0x00000468:    000019cc    ....    DCD    6604
        0x0000046c:    002faf08    ../.    DCD    3125000
        0x00000470:    00001a08    ....    DCD    6664
        0x00000474:    00001d14    ....    DCD    7444
        0x00000478:    0000203c    < ..    DCD    8252
        0x0000047c:    000019c0    ....    DCD    6592
        0x00000480:    2d2d2d0a    .---    DCD    757935370
        0x00000484:    2d2d2d2d    ----    DCD    757935405
        0x00000488:    616e5320     Sna    DCD    1634620192
        0x0000048c:    4720656b    ke G    DCD    1193305451
        0x00000490:    20656d61    ame     DCD    543518049
        0x00000494:    2d2d2d2d    ----    DCD    757935405
        0x00000498:    2d2d2d2d    ----    DCD    757935405
        0x0000049c:    00000000    ....    DCD    0
        0x000004a0:    6e65430a    .Cen    DCD    1852130058
        0x000004a4:    20657274    tre     DCD    543519348
        0x000004a8:    206e7462    btn     DCD    544109666
        0x000004ac:    2e2e2e2e    ....    DCD    774778414
        0x000004b0:    6168202e    . ha    DCD    1634213934
        0x000004b4:    72206472    rd r    DCD    1914725490
        0x000004b8:    74657365    eset    DCD    1952805733
        0x000004bc:    00000000    ....    DCD    0
        0x000004c0:    79654b0a    .Key    DCD    2036681482
        0x000004c4:    72616f62    boar    DCD    1918988130
        0x000004c8:    20722064    d r     DCD    544350308
        0x000004cc:    2e2e2e2e    ....    DCD    774778414
        0x000004d0:    6f73202e    . so    DCD    1869815854
        0x000004d4:    72207466    ft r    DCD    1914729574
        0x000004d8:    74657365    eset    DCD    1952805733
        0x000004dc:    00000000    ....    DCD    0
        0x000004e0:    2020200a    .       DCD    538976266
        0x000004e4:    79616c50    Play    DCD    2036427856
        0x000004e8:    31207265    er 1    DCD    824210021
        0x000004ec:    6465523a    :Red    DCD    1684361786
        0x000004f0:    616e5320     Sna    DCD    1634620192
        0x000004f4:    2020656b    ke      DCD    538994027
        0x000004f8:    00000020     ...    DCD    32
        0x000004fc:    79654b0a    .Key    DCD    2036681482
        0x00000500:    72616f62    boar    DCD    1918988130
        0x00000504:    20772064    d w     DCD    544677988
        0x00000508:    2e2e2e2e    ....    DCD    774778414
        0x0000050c:    2e2e2e2e    ....    DCD    774778414
        0x00000510:    766f6d20     mov    DCD    1987013920
        0x00000514:    70752065    e up    DCD    1886724197
        0x00000518:    00000000    ....    DCD    0
        0x0000051c:    79654b0a    .Key    DCD    2036681482
        0x00000520:    72616f62    boar    DCD    1918988130
        0x00000524:    20732064    d s     DCD    544415844
        0x00000528:    2e2e2e2e    ....    DCD    774778414
        0x0000052c:    6d202e2e    .. m    DCD    1830825518
        0x00000530:    2065766f    ove     DCD    543520367
        0x00000534:    6e776f64    down    DCD    1853321060
        0x00000538:    00000000    ....    DCD    0
        0x0000053c:    79654b0a    .Key    DCD    2036681482
        0x00000540:    72616f62    boar    DCD    1918988130
        0x00000544:    20612064    d a     DCD    543236196
        0x00000548:    2e2e2e2e    ....    DCD    774778414
        0x0000054c:    6d202e2e    .. m    DCD    1830825518
        0x00000550:    2065766f    ove     DCD    543520367
        0x00000554:    7466656c    left    DCD    1952867692
        0x00000558:    00000000    ....    DCD    0
        0x0000055c:    79654b0a    .Key    DCD    2036681482
        0x00000560:    72616f62    boar    DCD    1918988130
        0x00000564:    20642064    d d     DCD    543432804
        0x00000568:    2e2e2e2e    ....    DCD    774778414
        0x0000056c:    6f6d202e    . mo    DCD    1869422638
        0x00000570:    72206576    ve r    DCD    1914725750
        0x00000574:    74686769    ight    DCD    1952999273
        0x00000578:    00000000    ....    DCD    0
        0x0000057c:    2020200a    .       DCD    538976266
        0x00000580:    79616c50    Play    DCD    2036427856
        0x00000584:    32207265    er 2    DCD    840987237
        0x00000588:    6572473a    :Gre    DCD    1701988154
        0x0000058c:    53206e65    en S    DCD    1394634341
        0x00000590:    656b616e    nake    DCD    1701536110
        0x00000594:    00202020       .    DCD    2105376
        0x00000598:    79654b0a    .Key    DCD    2036681482
        0x0000059c:    72616f62    boar    DCD    1918988130
        0x000005a0:    20692064    d i     DCD    543760484
        0x000005a4:    2e2e2e2e    ....    DCD    774778414
        0x000005a8:    2e2e2e2e    ....    DCD    774778414
        0x000005ac:    766f6d20     mov    DCD    1987013920
        0x000005b0:    70752065    e up    DCD    1886724197
        0x000005b4:    00000000    ....    DCD    0
        0x000005b8:    79654b0a    .Key    DCD    2036681482
        0x000005bc:    72616f62    boar    DCD    1918988130
        0x000005c0:    206b2064    d k     DCD    543891556
        0x000005c4:    2e2e2e2e    ....    DCD    774778414
        0x000005c8:    6d202e2e    .. m    DCD    1830825518
        0x000005cc:    2065766f    ove     DCD    543520367
        0x000005d0:    6e776f64    down    DCD    1853321060
        0x000005d4:    00000000    ....    DCD    0
        0x000005d8:    79654b0a    .Key    DCD    2036681482
        0x000005dc:    72616f62    boar    DCD    1918988130
        0x000005e0:    206a2064    d j     DCD    543826020
        0x000005e4:    2e2e2e2e    ....    DCD    774778414
        0x000005e8:    6d202e2e    .. m    DCD    1830825518
        0x000005ec:    2065766f    ove     DCD    543520367
        0x000005f0:    7466656c    left    DCD    1952867692
        0x000005f4:    00000000    ....    DCD    0
        0x000005f8:    79654b0a    .Key    DCD    2036681482
        0x000005fc:    72616f62    boar    DCD    1918988130
        0x00000600:    206c2064    d l     DCD    543957092
        0x00000604:    2e2e2e2e    ....    DCD    774778414
        0x00000608:    6f6d202e    . mo    DCD    1869422638
        0x0000060c:    72206576    ve r    DCD    1914725750
        0x00000610:    74686769    ight    DCD    1952999273
        0x00000614:    00000000    ....    DCD    0
        0x00000618:    79654b0a    .Key    DCD    2036681482
        0x0000061c:    72616f62    boar    DCD    1918988130
        0x00000620:    70732064    d sp    DCD    1886593124
        0x00000624:    20656361    ace     DCD    543515489
        0x00000628:    2e2e2e2e    ....    DCD    774778414
        0x0000062c:    70202e2e    .. p    DCD    1881157166
        0x00000630:    65737561    ause    DCD    1702065505
        0x00000634:    00000000    ....    DCD    0
        0x00000638:    2d2d2d0a    .---    DCD    757935370
        0x0000063c:    2d2d2d2d    ----    DCD    757935405
        0x00000640:    2d2d2d2d    ----    DCD    757935405
        0x00000644:    2d2d2d2d    ----    DCD    757935405
        0x00000648:    2d2d2d2d    ----    DCD    757935405
        0x0000064c:    2d2d2d2d    ----    DCD    757935405
        0x00000650:    2d2d2d2d    ----    DCD    757935405
        0x00000654:    00000000    ....    DCD    0
        0x00000658:    206f540a    .To     DCD    544166922
        0x0000065c:    206e7572    run     DCD    544109938
        0x00000660:    20656874    the     DCD    543516788
        0x00000664:    656d6167    game    DCD    1701667175
        0x00000668:    616d202c    , ma    DCD    1634541612
        0x0000066c:    7320656b    ke s    DCD    1931502955
        0x00000670:    3a657275    ure:    DCD    979726965
        0x00000674:    00000000    ....    DCD    0
        0x00000678:    41552a0a    .*UA    DCD    1096100362
        0x0000067c:    74205452    RT t    DCD    1948275794
        0x00000680:    696d7265    ermi    DCD    1768780389
        0x00000684:    206c616e    nal     DCD    543973742
        0x00000688:    61207369    is a    DCD    1629516649
        0x0000068c:    76697463    ctiv    DCD    1986622563
        0x00000690:    64657461    ated    DCD    1684370529
        0x00000694:    00000000    ....    DCD    0
        0x00000698:    41552a0a    .*UA    DCD    1096100362
        0x0000069c:    62205452    RT b    DCD    1646285906
        0x000006a0:    20647561    aud     DCD    543454561
        0x000006a4:    65746172    rate    DCD    1702125938
        0x000006a8:    20736920     is     DCD    544434464
        0x000006ac:    30323931    1920    DCD    808597809
        0x000006b0:    73706230    0bps    DCD    1936745008
        0x000006b4:    00000000    ....    DCD    0
        0x000006b8:    654b2a0a    .*Ke    DCD    1699424778
        0x000006bc:    616f6279    yboa    DCD    1634689657
        0x000006c0:    69206472    rd i    DCD    1763730546
        0x000006c4:    6e692073    s in    DCD    1852383347
        0x000006c8:    776f6c20     low    DCD    2003790880
        0x000006cc:    63207265    er c    DCD    1663070821
        0x000006d0:    00657361    ase.    DCD    6648673
        0x000006d4:    6572500a    .Pre    DCD    1701990410
        0x000006d8:    61207373    ss a    DCD    1629516659
        0x000006dc:    6b20796e    ny k    DCD    1797290350
        0x000006e0:    74207965    ey t    DCD    1948285285
        0x000006e4:    7473206f    o st    DCD    1953701999
        0x000006e8:    0a747261    art.    DCD    175403617
        0x000006ec:    00000000    ....    DCD    0
        0x000006f0:    0a0a0a0a    ....    DCD    168430090
        0x000006f4:    0a0a0a0a    ....    DCD    168430090
        0x000006f8:    0a0a0a0a    ....    DCD    168430090
        0x000006fc:    0a0a0a0a    ....    DCD    168430090
        0x00000700:    0a0a0a0a    ....    DCD    168430090
        0x00000704:    00000000    ....    DCD    0
        0x00000708:    4d41470a    .GAM    DCD    1296123658
        0x0000070c:    564f2045    E OV    DCD    1448026181
        0x00000710:    21205245    ER !    DCD    555766341
        0x00000714:    000a2121    !!..    DCD    663841
        0x00000718:    6572500a    .Pre    DCD    1701990410
        0x0000071c:    27207373    ss '    DCD    656438131
        0x00000720:    74202771    q' t    DCD    1948264305
        0x00000724:    7571206f    o qu    DCD    1970348143
        0x00000728:    00007469    it..    DCD    29801
        0x0000072c:    6572500a    .Pre    DCD    1701990410
        0x00000730:    27207373    ss '    DCD    656438131
        0x00000734:    74202772    r' t    DCD    1948264306
        0x00000738:    6572206f    o re    DCD    1701978223
        0x0000073c:    79616c70    play    DCD    2036427888
        0x00000740:    0000000a    ....    DCD    10
        0x00000744:    766e490a    .Inv    DCD    1986939146
        0x00000748:    64696c61    alid    DCD    1684630625
        0x0000074c:    706e4920     Inp    DCD    1886275872
        0x00000750:    20217475    ut!     DCD    539063413
        0x00000754:    20797254    Try     DCD    544830036
        0x00000758:    69616741    Agai    DCD    1767991105
        0x0000075c:    0000216e    n!..    DCD    8558
        0x00000760:    000019b4    ....    DCD    6580
        0x00000764:    00006325    %c..    DCD    25381
        0x00000768:    000019c4    ....    DCD    6596
    $t
        0x0000076c:    48fe        .H      LDR      r0,[pc,#1016] ; [0xb68] = 0x19b4
        0x0000076e:    7800        .x      LDRB     r0,[r0,#0]
        0x00000770:    2861        a(      CMP      r0,#0x61
        0x00000772:    d107        ..      BNE      0x784 ; UART_ISR + 936
        0x00000774:    48fd        .H      LDR      r0,[pc,#1012] ; [0xb6c] = 0x1d14
        0x00000776:    6a40        @j      LDR      r0,[r0,#0x24]
        0x00000778:    2801        .(      CMP      r0,#1
        0x0000077a:    d003        ..      BEQ      0x784 ; UART_ISR + 936
        0x0000077c:    2002        .       MOVS     r0,#2
        0x0000077e:    49fb        .I      LDR      r1,[pc,#1004] ; [0xb6c] = 0x1d14
        0x00000780:    6248        Hb      STR      r0,[r1,#0x24]
        0x00000782:    e00a        ..      B        0x79a ; UART_ISR + 958
        0x00000784:    48f8        .H      LDR      r0,[pc,#992] ; [0xb68] = 0x19b4
        0x00000786:    7800        .x      LDRB     r0,[r0,#0]
        0x00000788:    2873        s(      CMP      r0,#0x73
        0x0000078a:    d106        ..      BNE      0x79a ; UART_ISR + 958
        0x0000078c:    48f7        .H      LDR      r0,[pc,#988] ; [0xb6c] = 0x1d14
        0x0000078e:    6a40        @j      LDR      r0,[r0,#0x24]
        0x00000790:    2803        .(      CMP      r0,#3
        0x00000792:    d002        ..      BEQ      0x79a ; UART_ISR + 958
        0x00000794:    2004        .       MOVS     r0,#4
        0x00000796:    49f5        .I      LDR      r1,[pc,#980] ; [0xb6c] = 0x1d14
        0x00000798:    6248        Hb      STR      r0,[r1,#0x24]
        0x0000079a:    48f5        .H      LDR      r0,[pc,#980] ; [0xb70] = 0x19c8
        0x0000079c:    6800        .h      LDR      r0,[r0,#0]
        0x0000079e:    2801        .(      CMP      r0,#1
        0x000007a0:    d12e        ..      BNE      0x800 ; UART_ISR + 1060
        0x000007a2:    48f1        .H      LDR      r0,[pc,#964] ; [0xb68] = 0x19b4
        0x000007a4:    7800        .x      LDRB     r0,[r0,#0]
        0x000007a6:    2869        i(      CMP      r0,#0x69
        0x000007a8:    d107        ..      BNE      0x7ba ; UART_ISR + 990
        0x000007aa:    48f2        .H      LDR      r0,[pc,#968] ; [0xb74] = 0x203c
        0x000007ac:    6a40        @j      LDR      r0,[r0,#0x24]
        0x000007ae:    2804        .(      CMP      r0,#4
        0x000007b0:    d003        ..      BEQ      0x7ba ; UART_ISR + 990
        0x000007b2:    2003        .       MOVS     r0,#3
        0x000007b4:    49ef        .I      LDR      r1,[pc,#956] ; [0xb74] = 0x203c
        0x000007b6:    6248        Hb      STR      r0,[r1,#0x24]
        0x000007b8:    e022        ".      B        0x800 ; UART_ISR + 1060
        0x000007ba:    48eb        .H      LDR      r0,[pc,#940] ; [0xb68] = 0x19b4
        0x000007bc:    7800        .x      LDRB     r0,[r0,#0]
        0x000007be:    286c        l(      CMP      r0,#0x6c
        0x000007c0:    d107        ..      BNE      0x7d2 ; UART_ISR + 1014
        0x000007c2:    48ec        .H      LDR      r0,[pc,#944] ; [0xb74] = 0x203c
        0x000007c4:    6a40        @j      LDR      r0,[r0,#0x24]
        0x000007c6:    2802        .(      CMP      r0,#2
        0x000007c8:    d003        ..      BEQ      0x7d2 ; UART_ISR + 1014
        0x000007ca:    2101        .!      MOVS     r1,#1
        0x000007cc:    48e9        .H      LDR      r0,[pc,#932] ; [0xb74] = 0x203c
        0x000007ce:    6241        Ab      STR      r1,[r0,#0x24]
        0x000007d0:    e016        ..      B        0x800 ; UART_ISR + 1060
        0x000007d2:    48e5        .H      LDR      r0,[pc,#916] ; [0xb68] = 0x19b4
        0x000007d4:    7800        .x      LDRB     r0,[r0,#0]
        0x000007d6:    286a        j(      CMP      r0,#0x6a
        0x000007d8:    d107        ..      BNE      0x7ea ; UART_ISR + 1038
        0x000007da:    48e6        .H      LDR      r0,[pc,#920] ; [0xb74] = 0x203c
        0x000007dc:    6a40        @j      LDR      r0,[r0,#0x24]
        0x000007de:    2801        .(      CMP      r0,#1
        0x000007e0:    d003        ..      BEQ      0x7ea ; UART_ISR + 1038
        0x000007e2:    2002        .       MOVS     r0,#2
        0x000007e4:    49e3        .I      LDR      r1,[pc,#908] ; [0xb74] = 0x203c
        0x000007e6:    6248        Hb      STR      r0,[r1,#0x24]
        0x000007e8:    e00a        ..      B        0x800 ; UART_ISR + 1060
        0x000007ea:    48df        .H      LDR      r0,[pc,#892] ; [0xb68] = 0x19b4
        0x000007ec:    7800        .x      LDRB     r0,[r0,#0]
        0x000007ee:    286b        k(      CMP      r0,#0x6b
        0x000007f0:    d106        ..      BNE      0x800 ; UART_ISR + 1060
        0x000007f2:    48e0        .H      LDR      r0,[pc,#896] ; [0xb74] = 0x203c
        0x000007f4:    6a40        @j      LDR      r0,[r0,#0x24]
        0x000007f6:    2803        .(      CMP      r0,#3
        0x000007f8:    d002        ..      BEQ      0x800 ; UART_ISR + 1060
        0x000007fa:    2104        .!      MOVS     r1,#4
        0x000007fc:    48dd        .H      LDR      r0,[pc,#884] ; [0xb74] = 0x203c
        0x000007fe:    6241        Ab      STR      r1,[r0,#0x24]
        0x00000800:    48d9        .H      LDR      r0,[pc,#868] ; [0xb68] = 0x19b4
        0x00000802:    7800        .x      LDRB     r0,[r0,#0]
        0x00000804:    2820         (      CMP      r0,#0x20
        0x00000806:    d112        ..      BNE      0x82e ; UART_ISR + 1106
        0x00000808:    48db        .H      LDR      r0,[pc,#876] ; [0xb78] = 0x19c0
        0x0000080a:    6800        .h      LDR      r0,[r0,#0]
        0x0000080c:    2800        .(      CMP      r0,#0
        0x0000080e:    d106        ..      BNE      0x81e ; UART_ISR + 1090
        0x00000810:    2001        .       MOVS     r0,#1
        0x00000812:    49d9        .I      LDR      r1,[pc,#868] ; [0xb78] = 0x19c0
        0x00000814:    6008        .`      STR      r0,[r1,#0]
        0x00000816:    2000        .       MOVS     r0,#0
        0x00000818:    f000fc2f    ../.    BL       NVIC_DisableIRQ ; 0x107a
        0x0000081c:    e007        ..      B        0x82e ; UART_ISR + 1106
        0x0000081e:    2000        .       MOVS     r0,#0
        0x00000820:    49d5        .I      LDR      r1,[pc,#852] ; [0xb78] = 0x19c0
        0x00000822:    6008        .`      STR      r0,[r1,#0]
        0x00000824:    f000fc22    ..".    BL       NVIC_EnableIRQ ; 0x106c
        0x00000828:    2000        .       MOVS     r0,#0
        0x0000082a:    f000fc1f    ....    BL       NVIC_EnableIRQ ; 0x106c
        0x0000082e:    2000        .       MOVS     r0,#0
        0x00000830:    49d2        .I      LDR      r1,[pc,#840] ; [0xb7c] = 0x19c4
        0x00000832:    6008        .`      STR      r0,[r1,#0]
        0x00000834:    49ce        .I      LDR      r1,[pc,#824] ; [0xb70] = 0x19c8
        0x00000836:    6008        .`      STR      r0,[r1,#0]
        0x00000838:    bd10        ..      POP      {r4,pc}
    Timer_ISR
        0x0000083a:    b5f8        ..      PUSH     {r3-r7,lr}
        0x0000083c:    48ce        .H      LDR      r0,[pc,#824] ; [0xb78] = 0x19c0
        0x0000083e:    6800        .h      LDR      r0,[r0,#0]
        0x00000840:    2800        .(      CMP      r0,#0
        0x00000842:    d17d        }.      BNE      0x940 ; Timer_ISR + 262
        0x00000844:    2005        .       MOVS     r0,#5
        0x00000846:    49ce        .I      LDR      r1,[pc,#824] ; [0xb80] = 0x19ac
        0x00000848:    6008        .`      STR      r0,[r1,#0]
        0x0000084a:    e025        %.      B        0x898 ; Timer_ISR + 94
        0x0000084c:    48cc        .H      LDR      r0,[pc,#816] ; [0xb80] = 0x19ac
        0x0000084e:    6800        .h      LDR      r0,[r0,#0]
        0x00000850:    0080        ..      LSLS     r0,r0,#2
        0x00000852:    49cc        .I      LDR      r1,[pc,#816] ; [0xb84] = 0x1a14
        0x00000854:    5808        .X      LDR      r0,[r1,r0]
        0x00000856:    6809        .h      LDR      r1,[r1,#0]
        0x00000858:    4288        .B      CMP      r0,r1
        0x0000085a:    d118        ..      BNE      0x88e ; Timer_ISR + 84
        0x0000085c:    48c8        .H      LDR      r0,[pc,#800] ; [0xb80] = 0x19ac
        0x0000085e:    6800        .h      LDR      r0,[r0,#0]
        0x00000860:    0081        ..      LSLS     r1,r0,#2
        0x00000862:    48c9        .H      LDR      r0,[pc,#804] ; [0xb88] = 0x1ba4
        0x00000864:    5841        AX      LDR      r1,[r0,r1]
        0x00000866:    3810        .8      SUBS     r0,r0,#0x10
        0x00000868:    6900        .i      LDR      r0,[r0,#0x10]
        0x0000086a:    4281        .B      CMP      r1,r0
        0x0000086c:    d10f        ..      BNE      0x88e ; Timer_ISR + 84
        0x0000086e:    48c7        .H      LDR      r0,[pc,#796] ; [0xb8c] = 0x19bc
        0x00000870:    6800        .h      LDR      r0,[r0,#0]
        0x00000872:    1d40        @.      ADDS     r0,r0,#5
        0x00000874:    49c5        .I      LDR      r1,[pc,#788] ; [0xb8c] = 0x19bc
        0x00000876:    6008        .`      STR      r0,[r1,#0]
        0x00000878:    4608        .F      MOV      r0,r1
        0x0000087a:    6802        .h      LDR      r2,[r0,#0]
        0x0000087c:    48c4        .H      LDR      r0,[pc,#784] ; [0xb90] = 0x19b8
        0x0000087e:    6801        .h      LDR      r1,[r0,#0]
        0x00000880:    48c4        .H      LDR      r0,[pc,#784] ; [0xb94] = 0x1868
        0x00000882:    f000fd6d    ..m.    BL       __2printf ; 0x1360
        0x00000886:    f7fffd84    ....    BL       GameOver ; 0x392
        0x0000088a:    4604        .F      MOV      r4,r0
        0x0000088c:    e00a        ..      B        0x8a4 ; Timer_ISR + 106
        0x0000088e:    48bc        .H      LDR      r0,[pc,#752] ; [0xb80] = 0x19ac
        0x00000890:    6800        .h      LDR      r0,[r0,#0]
        0x00000892:    1c40        @.      ADDS     r0,r0,#1
        0x00000894:    49ba        .I      LDR      r1,[pc,#744] ; [0xb80] = 0x19ac
        0x00000896:    6008        .`      STR      r0,[r1,#0]
        0x00000898:    48b4        .H      LDR      r0,[pc,#720] ; [0xb6c] = 0x1d14
        0x0000089a:    6a00        .j      LDR      r0,[r0,#0x20]
        0x0000089c:    49b8        .I      LDR      r1,[pc,#736] ; [0xb80] = 0x19ac
        0x0000089e:    6809        .h      LDR      r1,[r1,#0]
        0x000008a0:    4288        .B      CMP      r0,r1
        0x000008a2:    dcd3        ..      BGT      0x84c ; Timer_ISR + 18
        0x000008a4:    bf00        ..      NOP      
        0x000008a6:    2005        .       MOVS     r0,#5
        0x000008a8:    49bb        .I      LDR      r1,[pc,#748] ; [0xb98] = 0x19b0
        0x000008aa:    6008        .`      STR      r0,[r1,#0]
        0x000008ac:    e025        %.      B        0x8fa ; Timer_ISR + 192
        0x000008ae:    48ba        .H      LDR      r0,[pc,#744] ; [0xb98] = 0x19b0
        0x000008b0:    6800        .h      LDR      r0,[r0,#0]
        0x000008b2:    0080        ..      LSLS     r0,r0,#2
        0x000008b4:    49b9        .I      LDR      r1,[pc,#740] ; [0xb9c] = 0x1d3c
        0x000008b6:    5808        .X      LDR      r0,[r1,r0]
        0x000008b8:    6809        .h      LDR      r1,[r1,#0]
        0x000008ba:    4288        .B      CMP      r0,r1
        0x000008bc:    d118        ..      BNE      0x8f0 ; Timer_ISR + 182
        0x000008be:    48b6        .H      LDR      r0,[pc,#728] ; [0xb98] = 0x19b0
        0x000008c0:    6800        .h      LDR      r0,[r0,#0]
        0x000008c2:    0081        ..      LSLS     r1,r0,#2
        0x000008c4:    48b6        .H      LDR      r0,[pc,#728] ; [0xba0] = 0x1ecc
        0x000008c6:    5841        AX      LDR      r1,[r0,r1]
        0x000008c8:    3810        .8      SUBS     r0,r0,#0x10
        0x000008ca:    6900        .i      LDR      r0,[r0,#0x10]
        0x000008cc:    4281        .B      CMP      r1,r0
        0x000008ce:    d10f        ..      BNE      0x8f0 ; Timer_ISR + 182
        0x000008d0:    48af        .H      LDR      r0,[pc,#700] ; [0xb90] = 0x19b8
        0x000008d2:    6800        .h      LDR      r0,[r0,#0]
        0x000008d4:    1d40        @.      ADDS     r0,r0,#5
        0x000008d6:    49ae        .I      LDR      r1,[pc,#696] ; [0xb90] = 0x19b8
        0x000008d8:    6008        .`      STR      r0,[r1,#0]
        0x000008da:    48ac        .H      LDR      r0,[pc,#688] ; [0xb8c] = 0x19bc
        0x000008dc:    6802        .h      LDR      r2,[r0,#0]
        0x000008de:    4608        .F      MOV      r0,r1
        0x000008e0:    6801        .h      LDR      r1,[r0,#0]
        0x000008e2:    48b0        .H      LDR      r0,[pc,#704] ; [0xba4] = 0x18ac
        0x000008e4:    f000fd3c    ..<.    BL       __2printf ; 0x1360
        0x000008e8:    f7fffd53    ..S.    BL       GameOver ; 0x392
        0x000008ec:    4604        .F      MOV      r4,r0
        0x000008ee:    e00a        ..      B        0x906 ; Timer_ISR + 204
        0x000008f0:    48a9        .H      LDR      r0,[pc,#676] ; [0xb98] = 0x19b0
        0x000008f2:    6800        .h      LDR      r0,[r0,#0]
        0x000008f4:    1c40        @.      ADDS     r0,r0,#1
        0x000008f6:    49a8        .I      LDR      r1,[pc,#672] ; [0xb98] = 0x19b0
        0x000008f8:    6008        .`      STR      r0,[r1,#0]
        0x000008fa:    489e        .H      LDR      r0,[pc,#632] ; [0xb74] = 0x203c
        0x000008fc:    6a00        .j      LDR      r0,[r0,#0x20]
        0x000008fe:    49a6        .I      LDR      r1,[pc,#664] ; [0xb98] = 0x19b0
        0x00000900:    6809        .h      LDR      r1,[r1,#0]
        0x00000902:    4288        .B      CMP      r0,r1
        0x00000904:    dcd3        ..      BGT      0x8ae ; Timer_ISR + 116
        0x00000906:    bf00        ..      NOP      
        0x00000908:    2c00        .,      CMP      r4,#0
        0x0000090a:    d102        ..      BNE      0x912 ; Timer_ISR + 216
        0x0000090c:    f7fffcfe    ....    BL       Game_Close ; 0x30c
        0x00000910:    e003        ..      B        0x91a ; Timer_ISR + 224
        0x00000912:    2c01        .,      CMP      r4,#1
        0x00000914:    d101        ..      BNE      0x91a ; Timer_ISR + 224
        0x00000916:    f7fffc48    ..H.    BL       Game_Init ; 0x1aa
        0x0000091a:    2306        .#      MOVS     r3,#6
        0x0000091c:    2260        `"      MOVS     r2,#0x60
        0x0000091e:    2105        .!      MOVS     r1,#5
        0x00000920:    4608        .F      MOV      r0,r1
        0x00000922:    f7fffbfd    ....    BL       boundary_hit ; 0x120
        0x00000926:    2800        .(      CMP      r0,#0
        0x00000928:    d119        ..      BNE      0x95e ; Timer_ISR + 292
        0x0000092a:    2374        t#      MOVS     r3,#0x74
        0x0000092c:    2206        ."      MOVS     r2,#6
        0x0000092e:    2105        .!      MOVS     r1,#5
        0x00000930:    4608        .F      MOV      r0,r1
        0x00000932:    f7fffbf5    ....    BL       boundary_hit ; 0x120
        0x00000936:    2800        .(      CMP      r0,#0
        0x00000938:    d111        ..      BNE      0x95e ; Timer_ISR + 292
        0x0000093a:    2374        t#      MOVS     r3,#0x74
        0x0000093c:    2260        `"      MOVS     r2,#0x60
        0x0000093e:    e000        ..      B        0x942 ; Timer_ISR + 264
        0x00000940:    e313        ..      B        0xf6a ; Timer_ISR + 1840
        0x00000942:    4619        .F      MOV      r1,r3
        0x00000944:    2005        .       MOVS     r0,#5
        0x00000946:    f7fffbeb    ....    BL       boundary_hit ; 0x120
        0x0000094a:    2800        .(      CMP      r0,#0
        0x0000094c:    d107        ..      BNE      0x95e ; Timer_ISR + 292
        0x0000094e:    2375        u#      MOVS     r3,#0x75
        0x00000950:    2260        `"      MOVS     r2,#0x60
        0x00000952:    2105        .!      MOVS     r1,#5
        0x00000954:    4610        .F      MOV      r0,r2
        0x00000956:    f7fffbe3    ....    BL       boundary_hit ; 0x120
        0x0000095a:    2800        .(      CMP      r0,#0
        0x0000095c:    d00b        ..      BEQ      0x976 ; Timer_ISR + 316
        0x0000095e:    f7fffd18    ....    BL       GameOver ; 0x392
        0x00000962:    4604        .F      MOV      r4,r0
        0x00000964:    2c00        .,      CMP      r4,#0
        0x00000966:    d102        ..      BNE      0x96e ; Timer_ISR + 308
        0x00000968:    f7fffcd0    ....    BL       Game_Close ; 0x30c
        0x0000096c:    e003        ..      B        0x976 ; Timer_ISR + 316
        0x0000096e:    2c01        .,      CMP      r4,#1
        0x00000970:    d101        ..      BNE      0x976 ; Timer_ISR + 316
        0x00000972:    f7fffc1a    ....    BL       Game_Init ; 0x1aa
        0x00000976:    488c        .H      LDR      r0,[pc,#560] ; [0xba8] = 0x1a08
        0x00000978:    6880        .h      LDR      r0,[r0,#8]
        0x0000097a:    2801        .(      CMP      r0,#1
        0x0000097c:    d14e        N.      BNE      0xa1c ; Timer_ISR + 482
        0x0000097e:    bf00        ..      NOP      
        0x00000980:    2500        .%      MOVS     r5,#0
        0x00000982:    f7fffcd8    ....    BL       target_gen ; 0x336
        0x00000986:    2000        .       MOVS     r0,#0
        0x00000988:    497d        }I      LDR      r1,[pc,#500] ; [0xb80] = 0x19ac
        0x0000098a:    6008        .`      STR      r0,[r1,#0]
        0x0000098c:    4982        .I      LDR      r1,[pc,#520] ; [0xb98] = 0x19b0
        0x0000098e:    6008        .`      STR      r0,[r1,#0]
        0x00000990:    e02f        /.      B        0x9f2 ; Timer_ISR + 440
        0x00000992:    487b        {H      LDR      r0,[pc,#492] ; [0xb80] = 0x19ac
        0x00000994:    6800        .h      LDR      r0,[r0,#0]
        0x00000996:    0080        ..      LSLS     r0,r0,#2
        0x00000998:    497a        zI      LDR      r1,[pc,#488] ; [0xb84] = 0x1a14
        0x0000099a:    5808        .X      LDR      r0,[r1,r0]
        0x0000099c:    4982        .I      LDR      r1,[pc,#520] ; [0xba8] = 0x1a08
        0x0000099e:    6809        .h      LDR      r1,[r1,#0]
        0x000009a0:    4288        .B      CMP      r0,r1
        0x000009a2:    d108        ..      BNE      0x9b6 ; Timer_ISR + 380
        0x000009a4:    4876        vH      LDR      r0,[pc,#472] ; [0xb80] = 0x19ac
        0x000009a6:    6800        .h      LDR      r0,[r0,#0]
        0x000009a8:    0081        ..      LSLS     r1,r0,#2
        0x000009aa:    4877        wH      LDR      r0,[pc,#476] ; [0xb88] = 0x1ba4
        0x000009ac:    5840        @X      LDR      r0,[r0,r1]
        0x000009ae:    497e        ~I      LDR      r1,[pc,#504] ; [0xba8] = 0x1a08
        0x000009b0:    6849        Ih      LDR      r1,[r1,#4]
        0x000009b2:    4288        .B      CMP      r0,r1
        0x000009b4:    d011        ..      BEQ      0x9da ; Timer_ISR + 416
        0x000009b6:    4872        rH      LDR      r0,[pc,#456] ; [0xb80] = 0x19ac
        0x000009b8:    6800        .h      LDR      r0,[r0,#0]
        0x000009ba:    0080        ..      LSLS     r0,r0,#2
        0x000009bc:    4977        wI      LDR      r1,[pc,#476] ; [0xb9c] = 0x1d3c
        0x000009be:    5808        .X      LDR      r0,[r1,r0]
        0x000009c0:    4979        yI      LDR      r1,[pc,#484] ; [0xba8] = 0x1a08
        0x000009c2:    6809        .h      LDR      r1,[r1,#0]
        0x000009c4:    4288        .B      CMP      r0,r1
        0x000009c6:    d10a        ..      BNE      0x9de ; Timer_ISR + 420
        0x000009c8:    486d        mH      LDR      r0,[pc,#436] ; [0xb80] = 0x19ac
        0x000009ca:    6800        .h      LDR      r0,[r0,#0]
        0x000009cc:    0081        ..      LSLS     r1,r0,#2
        0x000009ce:    4874        tH      LDR      r0,[pc,#464] ; [0xba0] = 0x1ecc
        0x000009d0:    5840        @X      LDR      r0,[r0,r1]
        0x000009d2:    4975        uI      LDR      r1,[pc,#468] ; [0xba8] = 0x1a08
        0x000009d4:    6849        Ih      LDR      r1,[r1,#4]
        0x000009d6:    4288        .B      CMP      r0,r1
        0x000009d8:    d101        ..      BNE      0x9de ; Timer_ISR + 420
        0x000009da:    2501        .%      MOVS     r5,#1
        0x000009dc:    e015        ..      B        0xa0a ; Timer_ISR + 464
        0x000009de:    4868        hH      LDR      r0,[pc,#416] ; [0xb80] = 0x19ac
        0x000009e0:    6800        .h      LDR      r0,[r0,#0]
        0x000009e2:    1c40        @.      ADDS     r0,r0,#1
        0x000009e4:    4966        fI      LDR      r1,[pc,#408] ; [0xb80] = 0x19ac
        0x000009e6:    6008        .`      STR      r0,[r1,#0]
        0x000009e8:    486b        kH      LDR      r0,[pc,#428] ; [0xb98] = 0x19b0
        0x000009ea:    6800        .h      LDR      r0,[r0,#0]
        0x000009ec:    1c40        @.      ADDS     r0,r0,#1
        0x000009ee:    496a        jI      LDR      r1,[pc,#424] ; [0xb98] = 0x19b0
        0x000009f0:    6008        .`      STR      r0,[r1,#0]
        0x000009f2:    485e        ^H      LDR      r0,[pc,#376] ; [0xb6c] = 0x1d14
        0x000009f4:    6a00        .j      LDR      r0,[r0,#0x20]
        0x000009f6:    4962        bI      LDR      r1,[pc,#392] ; [0xb80] = 0x19ac
        0x000009f8:    6809        .h      LDR      r1,[r1,#0]
        0x000009fa:    4288        .B      CMP      r0,r1
        0x000009fc:    dd05        ..      BLE      0xa0a ; Timer_ISR + 464
        0x000009fe:    485d        ]H      LDR      r0,[pc,#372] ; [0xb74] = 0x203c
        0x00000a00:    6a00        .j      LDR      r0,[r0,#0x20]
        0x00000a02:    4965        eI      LDR      r1,[pc,#404] ; [0xb98] = 0x19b0
        0x00000a04:    6809        .h      LDR      r1,[r1,#0]
        0x00000a06:    4288        .B      CMP      r0,r1
        0x00000a08:    dcc3        ..      BGT      0x992 ; Timer_ISR + 344
        0x00000a0a:    bf00        ..      NOP      
        0x00000a0c:    2d01        .-      CMP      r5,#1
        0x00000a0e:    d0b7        ..      BEQ      0x980 ; Timer_ISR + 326
        0x00000a10:    4a65        eJ      LDR      r2,[pc,#404] ; [0xba8] = 0x1a08
        0x00000a12:    6851        Qh      LDR      r1,[r2,#4]
        0x00000a14:    6810        .h      LDR      r0,[r2,#0]
        0x00000a16:    22ff        ."      MOVS     r2,#0xff
        0x00000a18:    f000fb54    ..T.    BL       VGA_plot_pixel ; 0x10c4
        0x00000a1c:    4853        SH      LDR      r0,[pc,#332] ; [0xb6c] = 0x1d14
        0x00000a1e:    6a00        .j      LDR      r0,[r0,#0x20]
        0x00000a20:    1e40        @.      SUBS     r0,r0,#1
        0x00000a22:    4957        WI      LDR      r1,[pc,#348] ; [0xb80] = 0x19ac
        0x00000a24:    6008        .`      STR      r0,[r1,#0]
        0x00000a26:    e01a        ..      B        0xa5e ; Timer_ISR + 548
        0x00000a28:    4855        UH      LDR      r0,[pc,#340] ; [0xb80] = 0x19ac
        0x00000a2a:    6800        .h      LDR      r0,[r0,#0]
        0x00000a2c:    1e40        @.      SUBS     r0,r0,#1
        0x00000a2e:    0080        ..      LSLS     r0,r0,#2
        0x00000a30:    4954        TI      LDR      r1,[pc,#336] ; [0xb84] = 0x1a14
        0x00000a32:    5808        .X      LDR      r0,[r1,r0]
        0x00000a34:    4952        RI      LDR      r1,[pc,#328] ; [0xb80] = 0x19ac
        0x00000a36:    6809        .h      LDR      r1,[r1,#0]
        0x00000a38:    0089        ..      LSLS     r1,r1,#2
        0x00000a3a:    4a52        RJ      LDR      r2,[pc,#328] ; [0xb84] = 0x1a14
        0x00000a3c:    5050        PP      STR      r0,[r2,r1]
        0x00000a3e:    4850        PH      LDR      r0,[pc,#320] ; [0xb80] = 0x19ac
        0x00000a40:    6800        .h      LDR      r0,[r0,#0]
        0x00000a42:    1e40        @.      SUBS     r0,r0,#1
        0x00000a44:    0081        ..      LSLS     r1,r0,#2
        0x00000a46:    4850        PH      LDR      r0,[pc,#320] ; [0xb88] = 0x1ba4
        0x00000a48:    5841        AX      LDR      r1,[r0,r1]
        0x00000a4a:    484d        MH      LDR      r0,[pc,#308] ; [0xb80] = 0x19ac
        0x00000a4c:    6800        .h      LDR      r0,[r0,#0]
        0x00000a4e:    0082        ..      LSLS     r2,r0,#2
        0x00000a50:    484d        MH      LDR      r0,[pc,#308] ; [0xb88] = 0x1ba4
        0x00000a52:    5081        .P      STR      r1,[r0,r2]
        0x00000a54:    484a        JH      LDR      r0,[pc,#296] ; [0xb80] = 0x19ac
        0x00000a56:    6800        .h      LDR      r0,[r0,#0]
        0x00000a58:    1e40        @.      SUBS     r0,r0,#1
        0x00000a5a:    4949        II      LDR      r1,[pc,#292] ; [0xb80] = 0x19ac
        0x00000a5c:    6008        .`      STR      r0,[r1,#0]
        0x00000a5e:    4848        HH      LDR      r0,[pc,#288] ; [0xb80] = 0x19ac
        0x00000a60:    6800        .h      LDR      r0,[r0,#0]
        0x00000a62:    2800        .(      CMP      r0,#0
        0x00000a64:    dce0        ..      BGT      0xa28 ; Timer_ISR + 494
        0x00000a66:    4843        CH      LDR      r0,[pc,#268] ; [0xb74] = 0x203c
        0x00000a68:    6a00        .j      LDR      r0,[r0,#0x20]
        0x00000a6a:    1e40        @.      SUBS     r0,r0,#1
        0x00000a6c:    4944        DI      LDR      r1,[pc,#272] ; [0xb80] = 0x19ac
        0x00000a6e:    6008        .`      STR      r0,[r1,#0]
        0x00000a70:    e01a        ..      B        0xaa8 ; Timer_ISR + 622
        0x00000a72:    4843        CH      LDR      r0,[pc,#268] ; [0xb80] = 0x19ac
        0x00000a74:    6800        .h      LDR      r0,[r0,#0]
        0x00000a76:    1e40        @.      SUBS     r0,r0,#1
        0x00000a78:    0080        ..      LSLS     r0,r0,#2
        0x00000a7a:    4948        HI      LDR      r1,[pc,#288] ; [0xb9c] = 0x1d3c
        0x00000a7c:    5808        .X      LDR      r0,[r1,r0]
        0x00000a7e:    4940        @I      LDR      r1,[pc,#256] ; [0xb80] = 0x19ac
        0x00000a80:    6809        .h      LDR      r1,[r1,#0]
        0x00000a82:    0089        ..      LSLS     r1,r1,#2
        0x00000a84:    4a45        EJ      LDR      r2,[pc,#276] ; [0xb9c] = 0x1d3c
        0x00000a86:    5050        PP      STR      r0,[r2,r1]
        0x00000a88:    483d        =H      LDR      r0,[pc,#244] ; [0xb80] = 0x19ac
        0x00000a8a:    6800        .h      LDR      r0,[r0,#0]
        0x00000a8c:    1e40        @.      SUBS     r0,r0,#1
        0x00000a8e:    0081        ..      LSLS     r1,r0,#2
        0x00000a90:    4843        CH      LDR      r0,[pc,#268] ; [0xba0] = 0x1ecc
        0x00000a92:    5841        AX      LDR      r1,[r0,r1]
        0x00000a94:    483a        :H      LDR      r0,[pc,#232] ; [0xb80] = 0x19ac
        0x00000a96:    6800        .h      LDR      r0,[r0,#0]
        0x00000a98:    0082        ..      LSLS     r2,r0,#2
        0x00000a9a:    4841        AH      LDR      r0,[pc,#260] ; [0xba0] = 0x1ecc
        0x00000a9c:    5081        .P      STR      r1,[r0,r2]
        0x00000a9e:    4838        8H      LDR      r0,[pc,#224] ; [0xb80] = 0x19ac
        0x00000aa0:    6800        .h      LDR      r0,[r0,#0]
        0x00000aa2:    1e40        @.      SUBS     r0,r0,#1
        0x00000aa4:    4936        6I      LDR      r1,[pc,#216] ; [0xb80] = 0x19ac
        0x00000aa6:    6008        .`      STR      r0,[r1,#0]
        0x00000aa8:    4835        5H      LDR      r0,[pc,#212] ; [0xb80] = 0x19ac
        0x00000aaa:    6800        .h      LDR      r0,[r0,#0]
        0x00000aac:    2800        .(      CMP      r0,#0
        0x00000aae:    dce0        ..      BGT      0xa72 ; Timer_ISR + 568
        0x00000ab0:    482e        .H      LDR      r0,[pc,#184] ; [0xb6c] = 0x1d14
        0x00000ab2:    6a40        @j      LDR      r0,[r0,#0x24]
        0x00000ab4:    2801        .(      CMP      r0,#1
        0x00000ab6:    d006        ..      BEQ      0xac6 ; Timer_ISR + 652
        0x00000ab8:    2802        .(      CMP      r0,#2
        0x00000aba:    d00a        ..      BEQ      0xad2 ; Timer_ISR + 664
        0x00000abc:    2803        .(      CMP      r0,#3
        0x00000abe:    d00e        ..      BEQ      0xade ; Timer_ISR + 676
        0x00000ac0:    2804        .(      CMP      r0,#4
        0x00000ac2:    d11c        ..      BNE      0xafe ; Timer_ISR + 708
        0x00000ac4:    e013        ..      B        0xaee ; Timer_ISR + 692
        0x00000ac6:    482f        /H      LDR      r0,[pc,#188] ; [0xb84] = 0x1a14
        0x00000ac8:    6800        .h      LDR      r0,[r0,#0]
        0x00000aca:    1c80        ..      ADDS     r0,r0,#2
        0x00000acc:    492d        -I      LDR      r1,[pc,#180] ; [0xb84] = 0x1a14
        0x00000ace:    6008        .`      STR      r0,[r1,#0]
        0x00000ad0:    e015        ..      B        0xafe ; Timer_ISR + 708
        0x00000ad2:    482c        ,H      LDR      r0,[pc,#176] ; [0xb84] = 0x1a14
        0x00000ad4:    6800        .h      LDR      r0,[r0,#0]
        0x00000ad6:    1e80        ..      SUBS     r0,r0,#2
        0x00000ad8:    492a        *I      LDR      r1,[pc,#168] ; [0xb84] = 0x1a14
        0x00000ada:    6008        .`      STR      r0,[r1,#0]
        0x00000adc:    e00f        ..      B        0xafe ; Timer_ISR + 708
        0x00000ade:    482a        *H      LDR      r0,[pc,#168] ; [0xb88] = 0x1ba4
        0x00000ae0:    3810        .8      SUBS     r0,r0,#0x10
        0x00000ae2:    6900        .i      LDR      r0,[r0,#0x10]
        0x00000ae4:    1e80        ..      SUBS     r0,r0,#2
        0x00000ae6:    4928        (I      LDR      r1,[pc,#160] ; [0xb88] = 0x1ba4
        0x00000ae8:    3910        .9      SUBS     r1,r1,#0x10
        0x00000aea:    6108        .a      STR      r0,[r1,#0x10]
        0x00000aec:    e007        ..      B        0xafe ; Timer_ISR + 708
        0x00000aee:    4826        &H      LDR      r0,[pc,#152] ; [0xb88] = 0x1ba4
        0x00000af0:    3810        .8      SUBS     r0,r0,#0x10
        0x00000af2:    6900        .i      LDR      r0,[r0,#0x10]
        0x00000af4:    1c80        ..      ADDS     r0,r0,#2
        0x00000af6:    4924        $I      LDR      r1,[pc,#144] ; [0xb88] = 0x1ba4
        0x00000af8:    3910        .9      SUBS     r1,r1,#0x10
        0x00000afa:    6108        .a      STR      r0,[r1,#0x10]
        0x00000afc:    bf00        ..      NOP      
        0x00000afe:    bf00        ..      NOP      
        0x00000b00:    481c        .H      LDR      r0,[pc,#112] ; [0xb74] = 0x203c
        0x00000b02:    6a40        @j      LDR      r0,[r0,#0x24]
        0x00000b04:    2801        .(      CMP      r0,#1
        0x00000b06:    d006        ..      BEQ      0xb16 ; Timer_ISR + 732
        0x00000b08:    2802        .(      CMP      r0,#2
        0x00000b0a:    d00a        ..      BEQ      0xb22 ; Timer_ISR + 744
        0x00000b0c:    2803        .(      CMP      r0,#3
        0x00000b0e:    d00e        ..      BEQ      0xb2e ; Timer_ISR + 756
        0x00000b10:    2804        .(      CMP      r0,#4
        0x00000b12:    d11c        ..      BNE      0xb4e ; Timer_ISR + 788
        0x00000b14:    e013        ..      B        0xb3e ; Timer_ISR + 772
        0x00000b16:    4821        !H      LDR      r0,[pc,#132] ; [0xb9c] = 0x1d3c
        0x00000b18:    6800        .h      LDR      r0,[r0,#0]
        0x00000b1a:    1c80        ..      ADDS     r0,r0,#2
        0x00000b1c:    491f        .I      LDR      r1,[pc,#124] ; [0xb9c] = 0x1d3c
        0x00000b1e:    6008        .`      STR      r0,[r1,#0]
        0x00000b20:    e015        ..      B        0xb4e ; Timer_ISR + 788
        0x00000b22:    481e        .H      LDR      r0,[pc,#120] ; [0xb9c] = 0x1d3c
        0x00000b24:    6800        .h      LDR      r0,[r0,#0]
        0x00000b26:    1e80        ..      SUBS     r0,r0,#2
        0x00000b28:    491c        .I      LDR      r1,[pc,#112] ; [0xb9c] = 0x1d3c
        0x00000b2a:    6008        .`      STR      r0,[r1,#0]
        0x00000b2c:    e00f        ..      B        0xb4e ; Timer_ISR + 788
        0x00000b2e:    481c        .H      LDR      r0,[pc,#112] ; [0xba0] = 0x1ecc
        0x00000b30:    3810        .8      SUBS     r0,r0,#0x10
        0x00000b32:    6900        .i      LDR      r0,[r0,#0x10]
        0x00000b34:    1e80        ..      SUBS     r0,r0,#2
        0x00000b36:    491a        .I      LDR      r1,[pc,#104] ; [0xba0] = 0x1ecc
        0x00000b38:    3910        .9      SUBS     r1,r1,#0x10
        0x00000b3a:    6108        .a      STR      r0,[r1,#0x10]
        0x00000b3c:    e007        ..      B        0xb4e ; Timer_ISR + 788
        0x00000b3e:    4818        .H      LDR      r0,[pc,#96] ; [0xba0] = 0x1ecc
        0x00000b40:    3810        .8      SUBS     r0,r0,#0x10
        0x00000b42:    6900        .i      LDR      r0,[r0,#0x10]
        0x00000b44:    1c80        ..      ADDS     r0,r0,#2
        0x00000b46:    4916        .I      LDR      r1,[pc,#88] ; [0xba0] = 0x1ecc
        0x00000b48:    3910        .9      SUBS     r1,r1,#0x10
        0x00000b4a:    6108        .a      STR      r0,[r1,#0x10]
        0x00000b4c:    bf00        ..      NOP      
        0x00000b4e:    bf00        ..      NOP      
        0x00000b50:    480c        .H      LDR      r0,[pc,#48] ; [0xb84] = 0x1a14
        0x00000b52:    6800        .h      LDR      r0,[r0,#0]
        0x00000b54:    4914        .I      LDR      r1,[pc,#80] ; [0xba8] = 0x1a08
        0x00000b56:    6809        .h      LDR      r1,[r1,#0]
        0x00000b58:    4288        .B      CMP      r0,r1
        0x00000b5a:    d17d        }.      BNE      0xc58 ; Timer_ISR + 1054
        0x00000b5c:    480a        .H      LDR      r0,[pc,#40] ; [0xb88] = 0x1ba4
        0x00000b5e:    3810        .8      SUBS     r0,r0,#0x10
        0x00000b60:    6900        .i      LDR      r0,[r0,#0x10]
        0x00000b62:    4911        .I      LDR      r1,[pc,#68] ; [0xba8] = 0x1a08
        0x00000b64:    6849        Ih      LDR      r1,[r1,#4]
        0x00000b66:    e021        !.      B        0xbac ; Timer_ISR + 882
    $d
        0x00000b68:    000019b4    ....    DCD    6580
        0x00000b6c:    00001d14    ....    DCD    7444
        0x00000b70:    000019c8    ....    DCD    6600
        0x00000b74:    0000203c    < ..    DCD    8252
        0x00000b78:    000019c0    ....    DCD    6592
        0x00000b7c:    000019c4    ....    DCD    6596
        0x00000b80:    000019ac    ....    DCD    6572
        0x00000b84:    00001a14    ....    DCD    6676
        0x00000b88:    00001ba4    ....    DCD    7076
        0x00000b8c:    000019bc    ....    DCD    6588
        0x00000b90:    000019b8    ....    DCD    6584
        0x00000b94:    00001868    h...    DCD    6248
        0x00000b98:    000019b0    ....    DCD    6576
        0x00000b9c:    00001d3c    <...    DCD    7484
        0x00000ba0:    00001ecc    ....    DCD    7884
        0x00000ba4:    000018ac    ....    DCD    6316
        0x00000ba8:    00001a08    ....    DCD    6664
    $t
        0x00000bac:    4288        .B      CMP      r0,r1
        0x00000bae:    d157        W.      BNE      0xc60 ; Timer_ISR + 1062
        0x00000bb0:    2000        .       MOVS     r0,#0
        0x00000bb2:    4ef6        .N      LDR      r6,[pc,#984] ; [0xf8c] = 0x1a08
        0x00000bb4:    9000        ..      STR      r0,[sp,#0]
        0x00000bb6:    6876        vh      LDR      r6,[r6,#4]
        0x00000bb8:    1cb3        ..      ADDS     r3,r6,#2
        0x00000bba:    4ef4        .N      LDR      r6,[pc,#976] ; [0xf8c] = 0x1a08
        0x00000bbc:    6836        6h      LDR      r6,[r6,#0]
        0x00000bbe:    1cb2        ..      ADDS     r2,r6,#2
        0x00000bc0:    4ef2        .N      LDR      r6,[pc,#968] ; [0xf8c] = 0x1a08
        0x00000bc2:    6871        qh      LDR      r1,[r6,#4]
        0x00000bc4:    6830        0h      LDR      r0,[r6,#0]
        0x00000bc6:    f000fb4f    ..O.    BL       rectangle ; 0x1268
        0x00000bca:    2009        .       MOVS     r0,#9
        0x00000bcc:    43c0        .C      MVNS     r0,r0
        0x00000bce:    49f0        .I      LDR      r1,[pc,#960] ; [0xf90] = 0x1d14
        0x00000bd0:    6a09        .j      LDR      r1,[r1,#0x20]
        0x00000bd2:    0089        ..      LSLS     r1,r1,#2
        0x00000bd4:    4aef        .J      LDR      r2,[pc,#956] ; [0xf94] = 0x1a14
        0x00000bd6:    5050        PP      STR      r0,[r2,r1]
        0x00000bd8:    4601        .F      MOV      r1,r0
        0x00000bda:    48ed        .H      LDR      r0,[pc,#948] ; [0xf90] = 0x1d14
        0x00000bdc:    6a00        .j      LDR      r0,[r0,#0x20]
        0x00000bde:    0082        ..      LSLS     r2,r0,#2
        0x00000be0:    48ed        .H      LDR      r0,[pc,#948] ; [0xf98] = 0x1ba4
        0x00000be2:    5081        .P      STR      r1,[r0,r2]
        0x00000be4:    48ea        .H      LDR      r0,[pc,#936] ; [0xf90] = 0x1d14
        0x00000be6:    6a00        .j      LDR      r0,[r0,#0x20]
        0x00000be8:    1c40        @.      ADDS     r0,r0,#1
        0x00000bea:    49e9        .I      LDR      r1,[pc,#932] ; [0xf90] = 0x1d14
        0x00000bec:    6208        .b      STR      r0,[r1,#0x20]
        0x00000bee:    2001        .       MOVS     r0,#1
        0x00000bf0:    4631        1F      MOV      r1,r6
        0x00000bf2:    6088        .`      STR      r0,[r1,#8]
        0x00000bf4:    48e9        .H      LDR      r0,[pc,#932] ; [0xf9c] = 0x19b8
        0x00000bf6:    6800        .h      LDR      r0,[r0,#0]
        0x00000bf8:    1c40        @.      ADDS     r0,r0,#1
        0x00000bfa:    49e8        .I      LDR      r1,[pc,#928] ; [0xf9c] = 0x19b8
        0x00000bfc:    6008        .`      STR      r0,[r1,#0]
        0x00000bfe:    4608        .F      MOV      r0,r1
        0x00000c00:    6800        .h      LDR      r0,[r0,#0]
        0x00000c02:    280a        .(      CMP      r0,#0xa
        0x00000c04:    dc13        ..      BGT      0xc2e ; Timer_ISR + 1012
        0x00000c06:    48e6        .H      LDR      r0,[pc,#920] ; [0xfa0] = 0x19bc
        0x00000c08:    6800        .h      LDR      r0,[r0,#0]
        0x00000c0a:    6809        .h      LDR      r1,[r1,#0]
        0x00000c0c:    4288        .B      CMP      r0,r1
        0x00000c0e:    dc07        ..      BGT      0xc20 ; Timer_ISR + 998
        0x00000c10:    48e2        .H      LDR      r0,[pc,#904] ; [0xf9c] = 0x19b8
        0x00000c12:    6800        .h      LDR      r0,[r0,#0]
        0x00000c14:    0080        ..      LSLS     r0,r0,#2
        0x00000c16:    49e3        .I      LDR      r1,[pc,#908] ; [0xfa4] = 0x19d0
        0x00000c18:    5808        .X      LDR      r0,[r1,r0]
        0x00000c1a:    49e3        .I      LDR      r1,[pc,#908] ; [0xfa8] = 0x19cc
        0x00000c1c:    6008        .`      STR      r0,[r1,#0]
        0x00000c1e:    e006        ..      B        0xc2e ; Timer_ISR + 1012
        0x00000c20:    48df        .H      LDR      r0,[pc,#892] ; [0xfa0] = 0x19bc
        0x00000c22:    6800        .h      LDR      r0,[r0,#0]
        0x00000c24:    0080        ..      LSLS     r0,r0,#2
        0x00000c26:    49df        .I      LDR      r1,[pc,#892] ; [0xfa4] = 0x19d0
        0x00000c28:    5808        .X      LDR      r0,[r1,r0]
        0x00000c2a:    49df        .I      LDR      r1,[pc,#892] ; [0xfa8] = 0x19cc
        0x00000c2c:    6008        .`      STR      r0,[r1,#0]
        0x00000c2e:    48de        .H      LDR      r0,[pc,#888] ; [0xfa8] = 0x19cc
        0x00000c30:    6801        .h      LDR      r1,[r0,#0]
        0x00000c32:    48de        .H      LDR      r0,[pc,#888] ; [0xfac] = 0x2faf08
        0x00000c34:    f000fc42    ..B.    BL       __aeabi_idiv ; 0x14bc
        0x00000c38:    4606        .F      MOV      r6,r0
        0x00000c3a:    2201        ."      MOVS     r2,#1
        0x00000c3c:    2110        .!      MOVS     r1,#0x10
        0x00000c3e:    f000fa50    ..P.    BL       timer_init ; 0x10e2
        0x00000c42:    f000fa62    ..b.    BL       timer_enable ; 0x110a
        0x00000c46:    48d5        .H      LDR      r0,[pc,#852] ; [0xf9c] = 0x19b8
        0x00000c48:    6800        .h      LDR      r0,[r0,#0]
        0x00000c4a:    f000fb28    ..(.    BL       write_LED ; 0x129e
        0x00000c4e:    48d4        .H      LDR      r0,[pc,#848] ; [0xfa0] = 0x19bc
        0x00000c50:    6802        .h      LDR      r2,[r0,#0]
        0x00000c52:    48d2        .H      LDR      r0,[pc,#840] ; [0xf9c] = 0x19b8
        0x00000c54:    6801        .h      LDR      r1,[r0,#0]
        0x00000c56:    e000        ..      B        0xc5a ; Timer_ISR + 1056
        0x00000c58:    e002        ..      B        0xc60 ; Timer_ISR + 1062
        0x00000c5a:    a0d5        ..      ADR      r0,{pc}+0x356 ; 0xfb0
        0x00000c5c:    f000fb80    ....    BL       __2printf ; 0x1360
        0x00000c60:    48e3        .H      LDR      r0,[pc,#908] ; [0xff0] = 0x1d3c
        0x00000c62:    6800        .h      LDR      r0,[r0,#0]
        0x00000c64:    49c9        .I      LDR      r1,[pc,#804] ; [0xf8c] = 0x1a08
        0x00000c66:    6809        .h      LDR      r1,[r1,#0]
        0x00000c68:    4288        .B      CMP      r0,r1
        0x00000c6a:    d15c        \.      BNE      0xd26 ; Timer_ISR + 1260
        0x00000c6c:    48e1        .H      LDR      r0,[pc,#900] ; [0xff4] = 0x1ebc
        0x00000c6e:    6900        .i      LDR      r0,[r0,#0x10]
        0x00000c70:    49c6        .I      LDR      r1,[pc,#792] ; [0xf8c] = 0x1a08
        0x00000c72:    6849        Ih      LDR      r1,[r1,#4]
        0x00000c74:    4288        .B      CMP      r0,r1
        0x00000c76:    d156        V.      BNE      0xd26 ; Timer_ISR + 1260
        0x00000c78:    2000        .       MOVS     r0,#0
        0x00000c7a:    4ec4        .N      LDR      r6,[pc,#784] ; [0xf8c] = 0x1a08
        0x00000c7c:    9000        ..      STR      r0,[sp,#0]
        0x00000c7e:    6876        vh      LDR      r6,[r6,#4]
        0x00000c80:    1cb3        ..      ADDS     r3,r6,#2
        0x00000c82:    4ec2        .N      LDR      r6,[pc,#776] ; [0xf8c] = 0x1a08
        0x00000c84:    6836        6h      LDR      r6,[r6,#0]
        0x00000c86:    1cb2        ..      ADDS     r2,r6,#2
        0x00000c88:    4ec0        .N      LDR      r6,[pc,#768] ; [0xf8c] = 0x1a08
        0x00000c8a:    6871        qh      LDR      r1,[r6,#4]
        0x00000c8c:    6830        0h      LDR      r0,[r6,#0]
        0x00000c8e:    f000faeb    ....    BL       rectangle ; 0x1268
        0x00000c92:    2009        .       MOVS     r0,#9
        0x00000c94:    43c0        .C      MVNS     r0,r0
        0x00000c96:    49d8        .I      LDR      r1,[pc,#864] ; [0xff8] = 0x203c
        0x00000c98:    6a09        .j      LDR      r1,[r1,#0x20]
        0x00000c9a:    0089        ..      LSLS     r1,r1,#2
        0x00000c9c:    4ad4        .J      LDR      r2,[pc,#848] ; [0xff0] = 0x1d3c
        0x00000c9e:    5050        PP      STR      r0,[r2,r1]
        0x00000ca0:    4601        .F      MOV      r1,r0
        0x00000ca2:    48d5        .H      LDR      r0,[pc,#852] ; [0xff8] = 0x203c
        0x00000ca4:    6a00        .j      LDR      r0,[r0,#0x20]
        0x00000ca6:    0082        ..      LSLS     r2,r0,#2
        0x00000ca8:    48d2        .H      LDR      r0,[pc,#840] ; [0xff4] = 0x1ebc
        0x00000caa:    3010        .0      ADDS     r0,r0,#0x10
        0x00000cac:    5081        .P      STR      r1,[r0,r2]
        0x00000cae:    48d2        .H      LDR      r0,[pc,#840] ; [0xff8] = 0x203c
        0x00000cb0:    6a00        .j      LDR      r0,[r0,#0x20]
        0x00000cb2:    1c40        @.      ADDS     r0,r0,#1
        0x00000cb4:    49d0        .I      LDR      r1,[pc,#832] ; [0xff8] = 0x203c
        0x00000cb6:    6208        .b      STR      r0,[r1,#0x20]
        0x00000cb8:    2001        .       MOVS     r0,#1
        0x00000cba:    4631        1F      MOV      r1,r6
        0x00000cbc:    6088        .`      STR      r0,[r1,#8]
        0x00000cbe:    48b8        .H      LDR      r0,[pc,#736] ; [0xfa0] = 0x19bc
        0x00000cc0:    6800        .h      LDR      r0,[r0,#0]
        0x00000cc2:    1c40        @.      ADDS     r0,r0,#1
        0x00000cc4:    49b6        .I      LDR      r1,[pc,#728] ; [0xfa0] = 0x19bc
        0x00000cc6:    6008        .`      STR      r0,[r1,#0]
        0x00000cc8:    4608        .F      MOV      r0,r1
        0x00000cca:    6800        .h      LDR      r0,[r0,#0]
        0x00000ccc:    280a        .(      CMP      r0,#0xa
        0x00000cce:    dc13        ..      BGT      0xcf8 ; Timer_ISR + 1214
        0x00000cd0:    48b2        .H      LDR      r0,[pc,#712] ; [0xf9c] = 0x19b8
        0x00000cd2:    6800        .h      LDR      r0,[r0,#0]
        0x00000cd4:    6809        .h      LDR      r1,[r1,#0]
        0x00000cd6:    4288        .B      CMP      r0,r1
        0x00000cd8:    dc07        ..      BGT      0xcea ; Timer_ISR + 1200
        0x00000cda:    48b1        .H      LDR      r0,[pc,#708] ; [0xfa0] = 0x19bc
        0x00000cdc:    6800        .h      LDR      r0,[r0,#0]
        0x00000cde:    0080        ..      LSLS     r0,r0,#2
        0x00000ce0:    49b0        .I      LDR      r1,[pc,#704] ; [0xfa4] = 0x19d0
        0x00000ce2:    5808        .X      LDR      r0,[r1,r0]
        0x00000ce4:    49b0        .I      LDR      r1,[pc,#704] ; [0xfa8] = 0x19cc
        0x00000ce6:    6008        .`      STR      r0,[r1,#0]
        0x00000ce8:    e006        ..      B        0xcf8 ; Timer_ISR + 1214
        0x00000cea:    48ac        .H      LDR      r0,[pc,#688] ; [0xf9c] = 0x19b8
        0x00000cec:    6800        .h      LDR      r0,[r0,#0]
        0x00000cee:    0080        ..      LSLS     r0,r0,#2
        0x00000cf0:    49ac        .I      LDR      r1,[pc,#688] ; [0xfa4] = 0x19d0
        0x00000cf2:    5808        .X      LDR      r0,[r1,r0]
        0x00000cf4:    49ac        .I      LDR      r1,[pc,#688] ; [0xfa8] = 0x19cc
        0x00000cf6:    6008        .`      STR      r0,[r1,#0]
        0x00000cf8:    48ab        .H      LDR      r0,[pc,#684] ; [0xfa8] = 0x19cc
        0x00000cfa:    6801        .h      LDR      r1,[r0,#0]
        0x00000cfc:    48ab        .H      LDR      r0,[pc,#684] ; [0xfac] = 0x2faf08
        0x00000cfe:    f000fbdd    ....    BL       __aeabi_idiv ; 0x14bc
        0x00000d02:    4606        .F      MOV      r6,r0
        0x00000d04:    2201        ."      MOVS     r2,#1
        0x00000d06:    2110        .!      MOVS     r1,#0x10
        0x00000d08:    f000f9eb    ....    BL       timer_init ; 0x10e2
        0x00000d0c:    f000f9fd    ....    BL       timer_enable ; 0x110a
        0x00000d10:    48a3        .H      LDR      r0,[pc,#652] ; [0xfa0] = 0x19bc
        0x00000d12:    6800        .h      LDR      r0,[r0,#0]
        0x00000d14:    f000fac3    ....    BL       write_LED ; 0x129e
        0x00000d18:    48a0        .H      LDR      r0,[pc,#640] ; [0xf9c] = 0x19b8
        0x00000d1a:    6802        .h      LDR      r2,[r0,#0]
        0x00000d1c:    48a0        .H      LDR      r0,[pc,#640] ; [0xfa0] = 0x19bc
        0x00000d1e:    6801        .h      LDR      r1,[r0,#0]
        0x00000d20:    a0b6        ..      ADR      r0,{pc}+0x2dc ; 0xffc
        0x00000d22:    f000fb1d    ....    BL       __2printf ; 0x1360
        0x00000d26:    489b        .H      LDR      r0,[pc,#620] ; [0xf94] = 0x1a14
        0x00000d28:    6800        .h      LDR      r0,[r0,#0]
        0x00000d2a:    49b1        .I      LDR      r1,[pc,#708] ; [0xff0] = 0x1d3c
        0x00000d2c:    6809        .h      LDR      r1,[r1,#0]
        0x00000d2e:    4288        .B      CMP      r0,r1
        0x00000d30:    d115        ..      BNE      0xd5e ; Timer_ISR + 1316
        0x00000d32:    4899        .H      LDR      r0,[pc,#612] ; [0xf98] = 0x1ba4
        0x00000d34:    3810        .8      SUBS     r0,r0,#0x10
        0x00000d36:    6901        .i      LDR      r1,[r0,#0x10]
        0x00000d38:    48ae        .H      LDR      r0,[pc,#696] ; [0xff4] = 0x1ebc
        0x00000d3a:    6900        .i      LDR      r0,[r0,#0x10]
        0x00000d3c:    4281        .B      CMP      r1,r0
        0x00000d3e:    d10e        ..      BNE      0xd5e ; Timer_ISR + 1316
        0x00000d40:    a0be        ..      ADR      r0,{pc}+0x2fc ; 0x103c
        0x00000d42:    f000fb0d    ....    BL       __2printf ; 0x1360
        0x00000d46:    f7fffb24    ..$.    BL       GameOver ; 0x392
        0x00000d4a:    4604        .F      MOV      r4,r0
        0x00000d4c:    2c00        .,      CMP      r4,#0
        0x00000d4e:    d102        ..      BNE      0xd56 ; Timer_ISR + 1308
        0x00000d50:    f7fffadc    ....    BL       Game_Close ; 0x30c
        0x00000d54:    e003        ..      B        0xd5e ; Timer_ISR + 1316
        0x00000d56:    2c01        .,      CMP      r4,#1
        0x00000d58:    d101        ..      BNE      0xd5e ; Timer_ISR + 1316
        0x00000d5a:    f7fffa26    ..&.    BL       Game_Init ; 0x1aa
        0x00000d5e:    2001        .       MOVS     r0,#1
        0x00000d60:    49bd        .I      LDR      r1,[pc,#756] ; [0x1058] = 0x19ac
        0x00000d62:    6008        .`      STR      r0,[r1,#0]
        0x00000d64:    e030        0.      B        0xdc8 ; Timer_ISR + 1422
        0x00000d66:    48bc        .H      LDR      r0,[pc,#752] ; [0x1058] = 0x19ac
        0x00000d68:    6800        .h      LDR      r0,[r0,#0]
        0x00000d6a:    0080        ..      LSLS     r0,r0,#2
        0x00000d6c:    49a0        .I      LDR      r1,[pc,#640] ; [0xff0] = 0x1d3c
        0x00000d6e:    5808        .X      LDR      r0,[r1,r0]
        0x00000d70:    4988        .I      LDR      r1,[pc,#544] ; [0xf94] = 0x1a14
        0x00000d72:    6809        .h      LDR      r1,[r1,#0]
        0x00000d74:    4288        .B      CMP      r0,r1
        0x00000d76:    d122        ".      BNE      0xdbe ; Timer_ISR + 1412
        0x00000d78:    48b7        .H      LDR      r0,[pc,#732] ; [0x1058] = 0x19ac
        0x00000d7a:    6800        .h      LDR      r0,[r0,#0]
        0x00000d7c:    0081        ..      LSLS     r1,r0,#2
        0x00000d7e:    489d        .H      LDR      r0,[pc,#628] ; [0xff4] = 0x1ebc
        0x00000d80:    3010        .0      ADDS     r0,r0,#0x10
        0x00000d82:    5841        AX      LDR      r1,[r0,r1]
        0x00000d84:    4884        .H      LDR      r0,[pc,#528] ; [0xf98] = 0x1ba4
        0x00000d86:    3810        .8      SUBS     r0,r0,#0x10
        0x00000d88:    6900        .i      LDR      r0,[r0,#0x10]
        0x00000d8a:    4281        .B      CMP      r1,r0
        0x00000d8c:    d117        ..      BNE      0xdbe ; Timer_ISR + 1412
        0x00000d8e:    4884        .H      LDR      r0,[pc,#528] ; [0xfa0] = 0x19bc
        0x00000d90:    6800        .h      LDR      r0,[r0,#0]
        0x00000d92:    1d40        @.      ADDS     r0,r0,#5
        0x00000d94:    4982        .I      LDR      r1,[pc,#520] ; [0xfa0] = 0x19bc
        0x00000d96:    6008        .`      STR      r0,[r1,#0]
        0x00000d98:    4880        .H      LDR      r0,[pc,#512] ; [0xf9c] = 0x19b8
        0x00000d9a:    6802        .h      LDR      r2,[r0,#0]
        0x00000d9c:    4608        .F      MOV      r0,r1
        0x00000d9e:    6801        .h      LDR      r1,[r0,#0]
        0x00000da0:    48ae        .H      LDR      r0,[pc,#696] ; [0x105c] = 0x17c0
        0x00000da2:    f000fadd    ....    BL       __2printf ; 0x1360
        0x00000da6:    f7fffaf4    ....    BL       GameOver ; 0x392
        0x00000daa:    4604        .F      MOV      r4,r0
        0x00000dac:    2c00        .,      CMP      r4,#0
        0x00000dae:    d102        ..      BNE      0xdb6 ; Timer_ISR + 1404
        0x00000db0:    f7fffaac    ....    BL       Game_Close ; 0x30c
        0x00000db4:    e003        ..      B        0xdbe ; Timer_ISR + 1412
        0x00000db6:    2c01        .,      CMP      r4,#1
        0x00000db8:    d101        ..      BNE      0xdbe ; Timer_ISR + 1412
        0x00000dba:    f7fff9f6    ....    BL       Game_Init ; 0x1aa
        0x00000dbe:    48a6        .H      LDR      r0,[pc,#664] ; [0x1058] = 0x19ac
        0x00000dc0:    6800        .h      LDR      r0,[r0,#0]
        0x00000dc2:    1c40        @.      ADDS     r0,r0,#1
        0x00000dc4:    49a4        .I      LDR      r1,[pc,#656] ; [0x1058] = 0x19ac
        0x00000dc6:    6008        .`      STR      r0,[r1,#0]
        0x00000dc8:    488b        .H      LDR      r0,[pc,#556] ; [0xff8] = 0x203c
        0x00000dca:    6a00        .j      LDR      r0,[r0,#0x20]
        0x00000dcc:    49a2        .I      LDR      r1,[pc,#648] ; [0x1058] = 0x19ac
        0x00000dce:    6809        .h      LDR      r1,[r1,#0]
        0x00000dd0:    4288        .B      CMP      r0,r1
        0x00000dd2:    dcc8        ..      BGT      0xd66 ; Timer_ISR + 1324
        0x00000dd4:    2001        .       MOVS     r0,#1
        0x00000dd6:    49a0        .I      LDR      r1,[pc,#640] ; [0x1058] = 0x19ac
        0x00000dd8:    6008        .`      STR      r0,[r1,#0]
        0x00000dda:    e02e        ..      B        0xe3a ; Timer_ISR + 1536
        0x00000ddc:    489e        .H      LDR      r0,[pc,#632] ; [0x1058] = 0x19ac
        0x00000dde:    6800        .h      LDR      r0,[r0,#0]
        0x00000de0:    0080        ..      LSLS     r0,r0,#2
        0x00000de2:    496c        lI      LDR      r1,[pc,#432] ; [0xf94] = 0x1a14
        0x00000de4:    5808        .X      LDR      r0,[r1,r0]
        0x00000de6:    4982        .I      LDR      r1,[pc,#520] ; [0xff0] = 0x1d3c
        0x00000de8:    6809        .h      LDR      r1,[r1,#0]
        0x00000dea:    4288        .B      CMP      r0,r1
        0x00000dec:    d120         .      BNE      0xe30 ; Timer_ISR + 1526
        0x00000dee:    489a        .H      LDR      r0,[pc,#616] ; [0x1058] = 0x19ac
        0x00000df0:    6800        .h      LDR      r0,[r0,#0]
        0x00000df2:    0081        ..      LSLS     r1,r0,#2
        0x00000df4:    4868        hH      LDR      r0,[pc,#416] ; [0xf98] = 0x1ba4
        0x00000df6:    5841        AX      LDR      r1,[r0,r1]
        0x00000df8:    487e        ~H      LDR      r0,[pc,#504] ; [0xff4] = 0x1ebc
        0x00000dfa:    6900        .i      LDR      r0,[r0,#0x10]
        0x00000dfc:    4281        .B      CMP      r1,r0
        0x00000dfe:    d117        ..      BNE      0xe30 ; Timer_ISR + 1526
        0x00000e00:    4866        fH      LDR      r0,[pc,#408] ; [0xf9c] = 0x19b8
        0x00000e02:    6800        .h      LDR      r0,[r0,#0]
        0x00000e04:    1d40        @.      ADDS     r0,r0,#5
        0x00000e06:    4965        eI      LDR      r1,[pc,#404] ; [0xf9c] = 0x19b8
        0x00000e08:    6008        .`      STR      r0,[r1,#0]
        0x00000e0a:    4865        eH      LDR      r0,[pc,#404] ; [0xfa0] = 0x19bc
        0x00000e0c:    6802        .h      LDR      r2,[r0,#0]
        0x00000e0e:    4608        .F      MOV      r0,r1
        0x00000e10:    6801        .h      LDR      r1,[r0,#0]
        0x00000e12:    4893        .H      LDR      r0,[pc,#588] ; [0x1060] = 0x18f0
        0x00000e14:    f000faa4    ....    BL       __2printf ; 0x1360
        0x00000e18:    f7fffabb    ....    BL       GameOver ; 0x392
        0x00000e1c:    4604        .F      MOV      r4,r0
        0x00000e1e:    2c00        .,      CMP      r4,#0
        0x00000e20:    d102        ..      BNE      0xe28 ; Timer_ISR + 1518
        0x00000e22:    f7fffa73    ..s.    BL       Game_Close ; 0x30c
        0x00000e26:    e003        ..      B        0xe30 ; Timer_ISR + 1526
        0x00000e28:    2c01        .,      CMP      r4,#1
        0x00000e2a:    d101        ..      BNE      0xe30 ; Timer_ISR + 1526
        0x00000e2c:    f7fff9bd    ....    BL       Game_Init ; 0x1aa
        0x00000e30:    4889        .H      LDR      r0,[pc,#548] ; [0x1058] = 0x19ac
        0x00000e32:    6800        .h      LDR      r0,[r0,#0]
        0x00000e34:    1c40        @.      ADDS     r0,r0,#1
        0x00000e36:    4988        .I      LDR      r1,[pc,#544] ; [0x1058] = 0x19ac
        0x00000e38:    6008        .`      STR      r0,[r1,#0]
        0x00000e3a:    4855        UH      LDR      r0,[pc,#340] ; [0xf90] = 0x1d14
        0x00000e3c:    6a00        .j      LDR      r0,[r0,#0x20]
        0x00000e3e:    4986        .I      LDR      r1,[pc,#536] ; [0x1058] = 0x19ac
        0x00000e40:    6809        .h      LDR      r1,[r1,#0]
        0x00000e42:    4288        .B      CMP      r0,r1
        0x00000e44:    dcca        ..      BGT      0xddc ; Timer_ISR + 1442
        0x00000e46:    2000        .       MOVS     r0,#0
        0x00000e48:    4983        .I      LDR      r1,[pc,#524] ; [0x1058] = 0x19ac
        0x00000e4a:    6008        .`      STR      r0,[r1,#0]
        0x00000e4c:    e01e        ..      B        0xe8c ; Timer_ISR + 1618
        0x00000e4e:    20e0        .       MOVS     r0,#0xe0
        0x00000e50:    4e81        .N      LDR      r6,[pc,#516] ; [0x1058] = 0x19ac
        0x00000e52:    9000        ..      STR      r0,[sp,#0]
        0x00000e54:    6836        6h      LDR      r6,[r6,#0]
        0x00000e56:    00b7        ..      LSLS     r7,r6,#2
        0x00000e58:    4e4f        ON      LDR      r6,[pc,#316] ; [0xf98] = 0x1ba4
        0x00000e5a:    59f6        .Y      LDR      r6,[r6,r7]
        0x00000e5c:    1cb3        ..      ADDS     r3,r6,#2
        0x00000e5e:    4e7e        ~N      LDR      r6,[pc,#504] ; [0x1058] = 0x19ac
        0x00000e60:    6836        6h      LDR      r6,[r6,#0]
        0x00000e62:    00b6        ..      LSLS     r6,r6,#2
        0x00000e64:    4f4b        KO      LDR      r7,[pc,#300] ; [0xf94] = 0x1a14
        0x00000e66:    59be        .Y      LDR      r6,[r7,r6]
        0x00000e68:    1cb2        ..      ADDS     r2,r6,#2
        0x00000e6a:    4e7b        {N      LDR      r6,[pc,#492] ; [0x1058] = 0x19ac
        0x00000e6c:    6836        6h      LDR      r6,[r6,#0]
        0x00000e6e:    00b7        ..      LSLS     r7,r6,#2
        0x00000e70:    4e49        IN      LDR      r6,[pc,#292] ; [0xf98] = 0x1ba4
        0x00000e72:    59f1        .Y      LDR      r1,[r6,r7]
        0x00000e74:    4e78        xN      LDR      r6,[pc,#480] ; [0x1058] = 0x19ac
        0x00000e76:    6836        6h      LDR      r6,[r6,#0]
        0x00000e78:    00b6        ..      LSLS     r6,r6,#2
        0x00000e7a:    4f46        FO      LDR      r7,[pc,#280] ; [0xf94] = 0x1a14
        0x00000e7c:    59b8        .Y      LDR      r0,[r7,r6]
        0x00000e7e:    f000f9f3    ....    BL       rectangle ; 0x1268
        0x00000e82:    4875        uH      LDR      r0,[pc,#468] ; [0x1058] = 0x19ac
        0x00000e84:    6800        .h      LDR      r0,[r0,#0]
        0x00000e86:    1c40        @.      ADDS     r0,r0,#1
        0x00000e88:    4973        sI      LDR      r1,[pc,#460] ; [0x1058] = 0x19ac
        0x00000e8a:    6008        .`      STR      r0,[r1,#0]
        0x00000e8c:    4840        @H      LDR      r0,[pc,#256] ; [0xf90] = 0x1d14
        0x00000e8e:    6a00        .j      LDR      r0,[r0,#0x20]
        0x00000e90:    4971        qI      LDR      r1,[pc,#452] ; [0x1058] = 0x19ac
        0x00000e92:    6809        .h      LDR      r1,[r1,#0]
        0x00000e94:    4288        .B      CMP      r0,r1
        0x00000e96:    dcda        ..      BGT      0xe4e ; Timer_ISR + 1556
        0x00000e98:    2000        .       MOVS     r0,#0
        0x00000e9a:    4e3d        =N      LDR      r6,[pc,#244] ; [0xf90] = 0x1d14
        0x00000e9c:    9000        ..      STR      r0,[sp,#0]
        0x00000e9e:    6a36        6j      LDR      r6,[r6,#0x20]
        0x00000ea0:    1e76        v.      SUBS     r6,r6,#1
        0x00000ea2:    00b7        ..      LSLS     r7,r6,#2
        0x00000ea4:    4e3c        <N      LDR      r6,[pc,#240] ; [0xf98] = 0x1ba4
        0x00000ea6:    59f6        .Y      LDR      r6,[r6,r7]
        0x00000ea8:    1cb3        ..      ADDS     r3,r6,#2
        0x00000eaa:    4e39        9N      LDR      r6,[pc,#228] ; [0xf90] = 0x1d14
        0x00000eac:    6a36        6j      LDR      r6,[r6,#0x20]
        0x00000eae:    1e76        v.      SUBS     r6,r6,#1
        0x00000eb0:    00b6        ..      LSLS     r6,r6,#2
        0x00000eb2:    4f38        8O      LDR      r7,[pc,#224] ; [0xf94] = 0x1a14
        0x00000eb4:    59be        .Y      LDR      r6,[r7,r6]
        0x00000eb6:    1cb2        ..      ADDS     r2,r6,#2
        0x00000eb8:    4e35        5N      LDR      r6,[pc,#212] ; [0xf90] = 0x1d14
        0x00000eba:    6a36        6j      LDR      r6,[r6,#0x20]
        0x00000ebc:    1e76        v.      SUBS     r6,r6,#1
        0x00000ebe:    00b7        ..      LSLS     r7,r6,#2
        0x00000ec0:    4e35        5N      LDR      r6,[pc,#212] ; [0xf98] = 0x1ba4
        0x00000ec2:    59f1        .Y      LDR      r1,[r6,r7]
        0x00000ec4:    4e32        2N      LDR      r6,[pc,#200] ; [0xf90] = 0x1d14
        0x00000ec6:    6a36        6j      LDR      r6,[r6,#0x20]
        0x00000ec8:    1e76        v.      SUBS     r6,r6,#1
        0x00000eca:    00b6        ..      LSLS     r6,r6,#2
        0x00000ecc:    4f31        1O      LDR      r7,[pc,#196] ; [0xf94] = 0x1a14
        0x00000ece:    59b8        .Y      LDR      r0,[r7,r6]
        0x00000ed0:    f000f9ca    ....    BL       rectangle ; 0x1268
        0x00000ed4:    2000        .       MOVS     r0,#0
        0x00000ed6:    4960        `I      LDR      r1,[pc,#384] ; [0x1058] = 0x19ac
        0x00000ed8:    6008        .`      STR      r0,[r1,#0]
        0x00000eda:    e020         .      B        0xf1e ; Timer_ISR + 1764
        0x00000edc:    201c        .       MOVS     r0,#0x1c
        0x00000ede:    4e5e        ^N      LDR      r6,[pc,#376] ; [0x1058] = 0x19ac
        0x00000ee0:    9000        ..      STR      r0,[sp,#0]
        0x00000ee2:    6836        6h      LDR      r6,[r6,#0]
        0x00000ee4:    00b7        ..      LSLS     r7,r6,#2
        0x00000ee6:    4e43        CN      LDR      r6,[pc,#268] ; [0xff4] = 0x1ebc
        0x00000ee8:    3610        .6      ADDS     r6,r6,#0x10
        0x00000eea:    59f6        .Y      LDR      r6,[r6,r7]
        0x00000eec:    1cb3        ..      ADDS     r3,r6,#2
        0x00000eee:    4e5a        ZN      LDR      r6,[pc,#360] ; [0x1058] = 0x19ac
        0x00000ef0:    6836        6h      LDR      r6,[r6,#0]
        0x00000ef2:    00b6        ..      LSLS     r6,r6,#2
        0x00000ef4:    4f3e        >O      LDR      r7,[pc,#248] ; [0xff0] = 0x1d3c
        0x00000ef6:    59be        .Y      LDR      r6,[r7,r6]
        0x00000ef8:    1cb2        ..      ADDS     r2,r6,#2
        0x00000efa:    4e57        WN      LDR      r6,[pc,#348] ; [0x1058] = 0x19ac
        0x00000efc:    6836        6h      LDR      r6,[r6,#0]
        0x00000efe:    00b7        ..      LSLS     r7,r6,#2
        0x00000f00:    4e3c        <N      LDR      r6,[pc,#240] ; [0xff4] = 0x1ebc
        0x00000f02:    3610        .6      ADDS     r6,r6,#0x10
        0x00000f04:    59f1        .Y      LDR      r1,[r6,r7]
        0x00000f06:    4e54        TN      LDR      r6,[pc,#336] ; [0x1058] = 0x19ac
        0x00000f08:    6836        6h      LDR      r6,[r6,#0]
        0x00000f0a:    00b6        ..      LSLS     r6,r6,#2
        0x00000f0c:    4f38        8O      LDR      r7,[pc,#224] ; [0xff0] = 0x1d3c
        0x00000f0e:    59b8        .Y      LDR      r0,[r7,r6]
        0x00000f10:    f000f9aa    ....    BL       rectangle ; 0x1268
        0x00000f14:    4850        PH      LDR      r0,[pc,#320] ; [0x1058] = 0x19ac
        0x00000f16:    6800        .h      LDR      r0,[r0,#0]
        0x00000f18:    1c40        @.      ADDS     r0,r0,#1
        0x00000f1a:    494f        OI      LDR      r1,[pc,#316] ; [0x1058] = 0x19ac
        0x00000f1c:    6008        .`      STR      r0,[r1,#0]
        0x00000f1e:    4836        6H      LDR      r0,[pc,#216] ; [0xff8] = 0x203c
        0x00000f20:    6a00        .j      LDR      r0,[r0,#0x20]
        0x00000f22:    494d        MI      LDR      r1,[pc,#308] ; [0x1058] = 0x19ac
        0x00000f24:    6809        .h      LDR      r1,[r1,#0]
        0x00000f26:    4288        .B      CMP      r0,r1
        0x00000f28:    dcd8        ..      BGT      0xedc ; Timer_ISR + 1698
        0x00000f2a:    2000        .       MOVS     r0,#0
        0x00000f2c:    4e32        2N      LDR      r6,[pc,#200] ; [0xff8] = 0x203c
        0x00000f2e:    9000        ..      STR      r0,[sp,#0]
        0x00000f30:    6a36        6j      LDR      r6,[r6,#0x20]
        0x00000f32:    1e76        v.      SUBS     r6,r6,#1
        0x00000f34:    00b7        ..      LSLS     r7,r6,#2
        0x00000f36:    4e2f        /N      LDR      r6,[pc,#188] ; [0xff4] = 0x1ebc
        0x00000f38:    3610        .6      ADDS     r6,r6,#0x10
        0x00000f3a:    59f6        .Y      LDR      r6,[r6,r7]
        0x00000f3c:    1cb3        ..      ADDS     r3,r6,#2
        0x00000f3e:    4e2e        .N      LDR      r6,[pc,#184] ; [0xff8] = 0x203c
        0x00000f40:    6a36        6j      LDR      r6,[r6,#0x20]
        0x00000f42:    1e76        v.      SUBS     r6,r6,#1
        0x00000f44:    00b6        ..      LSLS     r6,r6,#2
        0x00000f46:    4f2a        *O      LDR      r7,[pc,#168] ; [0xff0] = 0x1d3c
        0x00000f48:    59be        .Y      LDR      r6,[r7,r6]
        0x00000f4a:    1cb2        ..      ADDS     r2,r6,#2
        0x00000f4c:    4e2a        *N      LDR      r6,[pc,#168] ; [0xff8] = 0x203c
        0x00000f4e:    6a36        6j      LDR      r6,[r6,#0x20]
        0x00000f50:    1e76        v.      SUBS     r6,r6,#1
        0x00000f52:    00b7        ..      LSLS     r7,r6,#2
        0x00000f54:    4e27        'N      LDR      r6,[pc,#156] ; [0xff4] = 0x1ebc
        0x00000f56:    3610        .6      ADDS     r6,r6,#0x10
        0x00000f58:    59f1        .Y      LDR      r1,[r6,r7]
        0x00000f5a:    4e27        'N      LDR      r6,[pc,#156] ; [0xff8] = 0x203c
        0x00000f5c:    6a36        6j      LDR      r6,[r6,#0x20]
        0x00000f5e:    1e76        v.      SUBS     r6,r6,#1
        0x00000f60:    00b6        ..      LSLS     r6,r6,#2
        0x00000f62:    4f23        #O      LDR      r7,[pc,#140] ; [0xff0] = 0x1d3c
        0x00000f64:    59b8        .Y      LDR      r0,[r7,r6]
        0x00000f66:    f000f97f    ....    BL       rectangle ; 0x1268
        0x00000f6a:    2001        .       MOVS     r0,#1
        0x00000f6c:    493d        =I      LDR      r1,[pc,#244] ; [0x1064] = 0x19c4
        0x00000f6e:    6008        .`      STR      r0,[r1,#0]
        0x00000f70:    493d        =I      LDR      r1,[pc,#244] ; [0x1068] = 0x19c8
        0x00000f72:    6008        .`      STR      r0,[r1,#0]
        0x00000f74:    f000f946    ..F.    BL       Display_Int_Times ; 0x1204
        0x00000f78:    f000f8d0    ....    BL       timer_irq_clear ; 0x111c
        0x00000f7c:    bdf8        ..      POP      {r3-r7,pc}
    main
        0x00000f7e:    f000f92b    ..+.    BL       SoC_init ; 0x11d8
        0x00000f82:    f7fff912    ....    BL       Game_Init ; 0x1aa
        0x00000f86:    e000        ..      B        0xf8a ; main + 12
        0x00000f88:    bf30        0.      WFI      
        0x00000f8a:    e7fd        ..      B        0xf88 ; main + 10
    $d
        0x00000f8c:    00001a08    ....    DCD    6664
        0x00000f90:    00001d14    ....    DCD    7444
        0x00000f94:    00001a14    ....    DCD    6676
        0x00000f98:    00001ba4    ....    DCD    7076
        0x00000f9c:    000019b8    ....    DCD    6584
        0x00000fa0:    000019bc    ....    DCD    6588
        0x00000fa4:    000019d0    ....    DCD    6608
        0x00000fa8:    000019cc    ....    DCD    6604
        0x00000fac:    002faf08    ../.    DCD    3125000
        0x00000fb0:    6465520a    .Red    DCD    1684361738
        0x00000fb4:    616e5320     Sna    DCD    1634620192
        0x00000fb8:    5320656b    ke S    DCD    1394632043
        0x00000fbc:    65726f63    core    DCD    1701998435
        0x00000fc0:    520a2164    d!.R    DCD    1376395620
        0x00000fc4:    53206465    ed S    DCD    1394631781
        0x00000fc8:    656b616e    nake    DCD    1701536110
        0x00000fcc:    6f635320     Sco    DCD    1868780320
        0x00000fd0:    203a6572    re:     DCD    540697970
        0x00000fd4:    470a6425    %d.G    DCD    1191863333
        0x00000fd8:    6e656572    reen    DCD    1852138866
        0x00000fdc:    616e5320     Sna    DCD    1634620192
        0x00000fe0:    5320656b    ke S    DCD    1394632043
        0x00000fe4:    65726f63    core    DCD    1701998435
        0x00000fe8:    6425203a    : %d    DCD    1680154682
        0x00000fec:    00000000    ....    DCD    0
        0x00000ff0:    00001d3c    <...    DCD    7484
        0x00000ff4:    00001ebc    ....    DCD    7868
        0x00000ff8:    0000203c    < ..    DCD    8252
        0x00000ffc:    6572470a    .Gre    DCD    1701988106
        0x00001000:    53206e65    en S    DCD    1394634341
        0x00001004:    656b616e    nake    DCD    1701536110
        0x00001008:    6f635320     Sco    DCD    1868780320
        0x0000100c:    21646572    red!    DCD    560227698
        0x00001010:    6572470a    .Gre    DCD    1701988106
        0x00001014:    53206e65    en S    DCD    1394634341
        0x00001018:    656b616e    nake    DCD    1701536110
        0x0000101c:    6f635320     Sco    DCD    1868780320
        0x00001020:    203a6572    re:     DCD    540697970
        0x00001024:    520a6425    %d.R    DCD    1376412709
        0x00001028:    53206465    ed S    DCD    1394631781
        0x0000102c:    656b616e    nake    DCD    1701536110
        0x00001030:    6f635320     Sco    DCD    1868780320
        0x00001034:    203a6572    re:     DCD    540697970
        0x00001038:    00006425    %d..    DCD    25637
        0x0000103c:    6165480a    .Hea    DCD    1634027530
        0x00001040:    6f742064    d to    DCD    1869881444
        0x00001044:    61654820     Hea    DCD    1634027552
        0x00001048:    6f432064    d Co    DCD    1866670180
        0x0000104c:    73696c6c    llis    DCD    1936288876
        0x00001050:    216e6f69    ion!    DCD    560885609
        0x00001054:    00000000    ....    DCD    0
        0x00001058:    000019ac    ....    DCD    6572
        0x0000105c:    000017c0    ....    DCD    6080
        0x00001060:    000018f0    ....    DCD    6384
        0x00001064:    000019c4    ....    DCD    6596
        0x00001068:    000019c8    ....    DCD    6600
    $t
    NVIC_EnableIRQ
        0x0000106c:    06c2        ..      LSLS     r2,r0,#27
        0x0000106e:    0ed2        ..      LSRS     r2,r2,#27
        0x00001070:    2101        .!      MOVS     r1,#1
        0x00001072:    4091        .@      LSLS     r1,r1,r2
        0x00001074:    4a05        .J      LDR      r2,[pc,#20] ; [0x108c] = 0xe000e100
        0x00001076:    6011        .`      STR      r1,[r2,#0]
        0x00001078:    4770        pG      BX       lr
    NVIC_DisableIRQ
        0x0000107a:    06c2        ..      LSLS     r2,r0,#27
        0x0000107c:    0ed2        ..      LSRS     r2,r2,#27
        0x0000107e:    2101        .!      MOVS     r1,#1
        0x00001080:    4091        .@      LSLS     r1,r1,r2
        0x00001082:    4a02        .J      LDR      r2,[pc,#8] ; [0x108c] = 0xe000e100
        0x00001084:    3280        .2      ADDS     r2,r2,#0x80
        0x00001086:    6011        .`      STR      r1,[r2,#0]
        0x00001088:    4770        pG      BX       lr
    $d
        0x0000108a:    0000        ..      DCW    0
        0x0000108c:    e000e100    ....    DCD    3758153984
    $t
    .text
    Reset_Handler
        0x00001090:    4807        .H      LDR      r0,[pc,#28] ; [0x10b0] = 0x81
        0x00001092:    4700        .G      BX       r0
    Timer_Handler
        0x00001094:    b507        ..      PUSH     {r0-r2,lr}
        0x00001096:    f7fffbd0    ....    BL       Timer_ISR ; 0x83a
        0x0000109a:    bd07        ..      POP      {r0-r2,pc}
    UART_Handler
        0x0000109c:    b507        ..      PUSH     {r0-r2,lr}
        0x0000109e:    f7fff99d    ....    BL       UART_ISR ; 0x3dc
        0x000010a2:    bd07        ..      POP      {r0-r2,pc}
    __user_initial_stackheap
        0x000010a4:    4803        .H      LDR      r0,[pc,#12] ; [0x10b4] = 0x20d0
        0x000010a6:    4904        .I      LDR      r1,[pc,#16] ; [0x10b8] = 0x28d0
        0x000010a8:    4a04        .J      LDR      r2,[pc,#16] ; [0x10bc] = 0x24d0
        0x000010aa:    4b05        .K      LDR      r3,[pc,#20] ; [0x10c0] = 0x24d0
        0x000010ac:    4770        pG      BX       lr
    $d
        0x000010ae:    0000        ..      DCW    0
        0x000010b0:    00000081    ....    DCD    129
        0x000010b4:    000020d0    . ..    DCD    8400
        0x000010b8:    000028d0    .(..    DCD    10448
        0x000010bc:    000024d0    .$..    DCD    9424
        0x000010c0:    000024d0    .$..    DCD    9424
    $t
    .text
    VGA_plot_pixel
        0x000010c4:    b530        0.      PUSH     {r4,r5,lr}
        0x000010c6:    01cc        ..      LSLS     r4,r1,#7
        0x000010c8:    1823        #.      ADDS     r3,r4,r0
        0x000010ca:    4c1e        .L      LDR      r4,[pc,#120] ; [0x1144] = 0x50000004
        0x000010cc:    009d        ..      LSLS     r5,r3,#2
        0x000010ce:    5162        bQ      STR      r2,[r4,r5]
        0x000010d0:    bd30        0.      POP      {r4,r5,pc}
    seven_seg_write
        0x000010d2:    b510        ..      PUSH     {r4,lr}
        0x000010d4:    2415        .$      MOVS     r4,#0x15
        0x000010d6:    06a4        ..      LSLS     r4,r4,#26
        0x000010d8:    6023        #`      STR      r3,[r4,#0]
        0x000010da:    6062        b`      STR      r2,[r4,#4]
        0x000010dc:    60a1        .`      STR      r1,[r4,#8]
        0x000010de:    60e0        .`      STR      r0,[r4,#0xc]
        0x000010e0:    bd10        ..      POP      {r4,pc}
    timer_init
        0x000010e2:    b570        p.      PUSH     {r4-r6,lr}
        0x000010e4:    4603        .F      MOV      r3,r0
        0x000010e6:    2910        .)      CMP      r1,#0x10
        0x000010e8:    d101        ..      BNE      0x10ee ; timer_init + 12
        0x000010ea:    2001        .       MOVS     r0,#1
        0x000010ec:    e000        ..      B        0x10f0 ; timer_init + 14
        0x000010ee:    2000        .       MOVS     r0,#0
        0x000010f0:    0084        ..      LSLS     r4,r0,#2
        0x000010f2:    0056        V.      LSLS     r6,r2,#1
        0x000010f4:    4334        4C      ORRS     r4,r4,r6
        0x000010f6:    2529        )%      MOVS     r5,#0x29
        0x000010f8:    066d        m.      LSLS     r5,r5,#25
        0x000010fa:    602b        +`      STR      r3,[r5,#0]
        0x000010fc:    2501        .%      MOVS     r5,#1
        0x000010fe:    2629        )&      MOVS     r6,#0x29
        0x00001100:    0676        v.      LSLS     r6,r6,#25
        0x00001102:    60f5        .`      STR      r5,[r6,#0xc]
        0x00001104:    4635        5F      MOV      r5,r6
        0x00001106:    60ac        .`      STR      r4,[r5,#8]
        0x00001108:    bd70        p.      POP      {r4-r6,pc}
    timer_enable
        0x0000110a:    2129        )!      MOVS     r1,#0x29
        0x0000110c:    0649        I.      LSLS     r1,r1,#25
        0x0000110e:    6888        .h      LDR      r0,[r1,#8]
        0x00001110:    2101        .!      MOVS     r1,#1
        0x00001112:    4308        .C      ORRS     r0,r0,r1
        0x00001114:    2129        )!      MOVS     r1,#0x29
        0x00001116:    0649        I.      LSLS     r1,r1,#25
        0x00001118:    6088        .`      STR      r0,[r1,#8]
        0x0000111a:    4770        pG      BX       lr
    timer_irq_clear
        0x0000111c:    2001        .       MOVS     r0,#1
        0x0000111e:    2129        )!      MOVS     r1,#0x29
        0x00001120:    0649        I.      LSLS     r1,r1,#25
        0x00001122:    60c8        .`      STR      r0,[r1,#0xc]
        0x00001124:    4770        pG      BX       lr
    GPIO_read
        0x00001126:    2000        .       MOVS     r0,#0
        0x00001128:    2153        S!      MOVS     r1,#0x53
        0x0000112a:    0609        ..      LSLS     r1,r1,#24
        0x0000112c:    6048        H`      STR      r0,[r1,#4]
        0x0000112e:    4608        .F      MOV      r0,r1
        0x00001130:    6800        .h      LDR      r0,[r0,#0]
        0x00001132:    4770        pG      BX       lr
    GPIO_write
        0x00001134:    2101        .!      MOVS     r1,#1
        0x00001136:    2253        S"      MOVS     r2,#0x53
        0x00001138:    0612        ..      LSLS     r2,r2,#24
        0x0000113a:    6051        Q`      STR      r1,[r2,#4]
        0x0000113c:    4611        .F      MOV      r1,r2
        0x0000113e:    6008        .`      STR      r0,[r1,#0]
        0x00001140:    4770        pG      BX       lr
    $d
        0x00001142:    0000        ..      DCW    0
        0x00001144:    50000004    ...P    DCD    1342177284
    $t
    .text
    NVIC_SetPriority
        0x00001148:    b510        ..      PUSH     {r4,lr}
        0x0000114a:    2800        .(      CMP      r0,#0
        0x0000114c:    da19        ..      BGE      0x1182 ; NVIC_SetPriority + 58
        0x0000114e:    4a64        dJ      LDR      r2,[pc,#400] ; [0x12e0] = 0xe000ed1c
        0x00001150:    0703        ..      LSLS     r3,r0,#28
        0x00001152:    0f1b        ..      LSRS     r3,r3,#28
        0x00001154:    3b08        .;      SUBS     r3,r3,#8
        0x00001156:    089b        ..      LSRS     r3,r3,#2
        0x00001158:    009b        ..      LSLS     r3,r3,#2
        0x0000115a:    58d2        .X      LDR      r2,[r2,r3]
        0x0000115c:    0783        ..      LSLS     r3,r0,#30
        0x0000115e:    0edc        ..      LSRS     r4,r3,#27
        0x00001160:    23ff        .#      MOVS     r3,#0xff
        0x00001162:    40a3        .@      LSLS     r3,r3,r4
        0x00001164:    439a        .C      BICS     r2,r2,r3
        0x00001166:    078b        ..      LSLS     r3,r1,#30
        0x00001168:    0e1b        ..      LSRS     r3,r3,#24
        0x0000116a:    0784        ..      LSLS     r4,r0,#30
        0x0000116c:    0ee4        ..      LSRS     r4,r4,#27
        0x0000116e:    40a3        .@      LSLS     r3,r3,r4
        0x00001170:    431a        .C      ORRS     r2,r2,r3
        0x00001172:    4b5b        [K      LDR      r3,[pc,#364] ; [0x12e0] = 0xe000ed1c
        0x00001174:    0704        ..      LSLS     r4,r0,#28
        0x00001176:    0f24        $.      LSRS     r4,r4,#28
        0x00001178:    3c08        .<      SUBS     r4,r4,#8
        0x0000117a:    08a4        ..      LSRS     r4,r4,#2
        0x0000117c:    00a4        ..      LSLS     r4,r4,#2
        0x0000117e:    511a        .Q      STR      r2,[r3,r4]
        0x00001180:    e018        ..      B        0x11b4 ; NVIC_SetPriority + 108
        0x00001182:    4a58        XJ      LDR      r2,[pc,#352] ; [0x12e4] = 0xe000e100
        0x00001184:    2303        .#      MOVS     r3,#3
        0x00001186:    021b        ..      LSLS     r3,r3,#8
        0x00001188:    18d2        ..      ADDS     r2,r2,r3
        0x0000118a:    0883        ..      LSRS     r3,r0,#2
        0x0000118c:    009b        ..      LSLS     r3,r3,#2
        0x0000118e:    58d2        .X      LDR      r2,[r2,r3]
        0x00001190:    0783        ..      LSLS     r3,r0,#30
        0x00001192:    0edc        ..      LSRS     r4,r3,#27
        0x00001194:    23ff        .#      MOVS     r3,#0xff
        0x00001196:    40a3        .@      LSLS     r3,r3,r4
        0x00001198:    439a        .C      BICS     r2,r2,r3
        0x0000119a:    078b        ..      LSLS     r3,r1,#30
        0x0000119c:    0e1b        ..      LSRS     r3,r3,#24
        0x0000119e:    0784        ..      LSLS     r4,r0,#30
        0x000011a0:    0ee4        ..      LSRS     r4,r4,#27
        0x000011a2:    40a3        .@      LSLS     r3,r3,r4
        0x000011a4:    431a        .C      ORRS     r2,r2,r3
        0x000011a6:    4b4f        OK      LDR      r3,[pc,#316] ; [0x12e4] = 0xe000e100
        0x000011a8:    2403        .$      MOVS     r4,#3
        0x000011aa:    0224        $.      LSLS     r4,r4,#8
        0x000011ac:    191b        ..      ADDS     r3,r3,r4
        0x000011ae:    0884        ..      LSRS     r4,r0,#2
        0x000011b0:    00a4        ..      LSLS     r4,r4,#2
        0x000011b2:    511a        .Q      STR      r2,[r3,r4]
        0x000011b4:    bd10        ..      POP      {r4,pc}
    clear_screen
        0x000011b6:    b570        p.      PUSH     {r4-r6,lr}
        0x000011b8:    2400        .$      MOVS     r4,#0
        0x000011ba:    e00a        ..      B        0x11d2 ; clear_screen + 28
        0x000011bc:    2500        .%      MOVS     r5,#0
        0x000011be:    e005        ..      B        0x11cc ; clear_screen + 22
        0x000011c0:    2200        ."      MOVS     r2,#0
        0x000011c2:    4629        )F      MOV      r1,r5
        0x000011c4:    4620         F      MOV      r0,r4
        0x000011c6:    f7ffff7d    ..}.    BL       VGA_plot_pixel ; 0x10c4
        0x000011ca:    1c6d        m.      ADDS     r5,r5,#1
        0x000011cc:    2d78        x-      CMP      r5,#0x78
        0x000011ce:    dbf7        ..      BLT      0x11c0 ; clear_screen + 10
        0x000011d0:    1c64        d.      ADDS     r4,r4,#1
        0x000011d2:    2c64        d,      CMP      r4,#0x64
        0x000011d4:    dbf2        ..      BLT      0x11bc ; clear_screen + 6
        0x000011d6:    bd70        p.      POP      {r4-r6,pc}
    SoC_init
        0x000011d8:    b510        ..      PUSH     {r4,lr}
        0x000011da:    2100        .!      MOVS     r1,#0
        0x000011dc:    4608        .F      MOV      r0,r1
        0x000011de:    f7ffffb3    ....    BL       NVIC_SetPriority ; 0x1148
        0x000011e2:    2140        @!      MOVS     r1,#0x40
        0x000011e4:    2001        .       MOVS     r0,#1
        0x000011e6:    f7ffffaf    ....    BL       NVIC_SetPriority ; 0x1148
        0x000011ea:    2300        .#      MOVS     r3,#0
        0x000011ec:    461a        .F      MOV      r2,r3
        0x000011ee:    4619        .F      MOV      r1,r3
        0x000011f0:    4618        .F      MOV      r0,r3
        0x000011f2:    f7ffff6e    ..n.    BL       seven_seg_write ; 0x10d2
        0x000011f6:    f7ffffde    ....    BL       clear_screen ; 0x11b6
        0x000011fa:    2000        .       MOVS     r0,#0
        0x000011fc:    4938        8I      LDR      r1,[pc,#224] ; [0x12e0] = 0xe000ed1c
        0x000011fe:    391c        .9      SUBS     r1,r1,#0x1c
        0x00001200:    6108        .a      STR      r0,[r1,#0x10]
        0x00001202:    bd10        ..      POP      {r4,pc}
    Display_Int_Times
        0x00001204:    b510        ..      PUSH     {r4,lr}
        0x00001206:    4838        8H      LDR      r0,[pc,#224] ; [0x12e8] = 0x19fb
        0x00001208:    7800        .x      LDRB     r0,[r0,#0]
        0x0000120a:    1c40        @.      ADDS     r0,r0,#1
        0x0000120c:    4936        6I      LDR      r1,[pc,#216] ; [0x12e8] = 0x19fb
        0x0000120e:    7008        .p      STRB     r0,[r1,#0]
        0x00001210:    4608        .F      MOV      r0,r1
        0x00001212:    7800        .x      LDRB     r0,[r0,#0]
        0x00001214:    280a        .(      CMP      r0,#0xa
        0x00001216:    d11c        ..      BNE      0x1252 ; Display_Int_Times + 78
        0x00001218:    2000        .       MOVS     r0,#0
        0x0000121a:    7008        .p      STRB     r0,[r1,#0]
        0x0000121c:    4833        3H      LDR      r0,[pc,#204] ; [0x12ec] = 0x19fa
        0x0000121e:    7800        .x      LDRB     r0,[r0,#0]
        0x00001220:    1c40        @.      ADDS     r0,r0,#1
        0x00001222:    4932        2I      LDR      r1,[pc,#200] ; [0x12ec] = 0x19fa
        0x00001224:    7008        .p      STRB     r0,[r1,#0]
        0x00001226:    4608        .F      MOV      r0,r1
        0x00001228:    7800        .x      LDRB     r0,[r0,#0]
        0x0000122a:    280a        .(      CMP      r0,#0xa
        0x0000122c:    d111        ..      BNE      0x1252 ; Display_Int_Times + 78
        0x0000122e:    2000        .       MOVS     r0,#0
        0x00001230:    7008        .p      STRB     r0,[r1,#0]
        0x00001232:    482f        /H      LDR      r0,[pc,#188] ; [0x12f0] = 0x19f9
        0x00001234:    7800        .x      LDRB     r0,[r0,#0]
        0x00001236:    1c40        @.      ADDS     r0,r0,#1
        0x00001238:    492d        -I      LDR      r1,[pc,#180] ; [0x12f0] = 0x19f9
        0x0000123a:    7008        .p      STRB     r0,[r1,#0]
        0x0000123c:    4608        .F      MOV      r0,r1
        0x0000123e:    7800        .x      LDRB     r0,[r0,#0]
        0x00001240:    280a        .(      CMP      r0,#0xa
        0x00001242:    d106        ..      BNE      0x1252 ; Display_Int_Times + 78
        0x00001244:    2000        .       MOVS     r0,#0
        0x00001246:    7008        .p      STRB     r0,[r1,#0]
        0x00001248:    482a        *H      LDR      r0,[pc,#168] ; [0x12f4] = 0x19f8
        0x0000124a:    7800        .x      LDRB     r0,[r0,#0]
        0x0000124c:    1c40        @.      ADDS     r0,r0,#1
        0x0000124e:    4929        )I      LDR      r1,[pc,#164] ; [0x12f4] = 0x19f8
        0x00001250:    7008        .p      STRB     r0,[r1,#0]
        0x00001252:    4825        %H      LDR      r0,[pc,#148] ; [0x12e8] = 0x19fb
        0x00001254:    7803        .x      LDRB     r3,[r0,#0]
        0x00001256:    4825        %H      LDR      r0,[pc,#148] ; [0x12ec] = 0x19fa
        0x00001258:    7802        .x      LDRB     r2,[r0,#0]
        0x0000125a:    4825        %H      LDR      r0,[pc,#148] ; [0x12f0] = 0x19f9
        0x0000125c:    7801        .x      LDRB     r1,[r0,#0]
        0x0000125e:    4825        %H      LDR      r0,[pc,#148] ; [0x12f4] = 0x19f8
        0x00001260:    7800        .x      LDRB     r0,[r0,#0]
        0x00001262:    f7ffff36    ..6.    BL       seven_seg_write ; 0x10d2
        0x00001266:    bd10        ..      POP      {r4,pc}
    rectangle
        0x00001268:    b5ff        ..      PUSH     {r0-r7,lr}
        0x0000126a:    b081        ..      SUB      sp,sp,#4
        0x0000126c:    4606        .F      MOV      r6,r0
        0x0000126e:    460f        .F      MOV      r7,r1
        0x00001270:    4634        4F      MOV      r4,r6
        0x00001272:    e00b        ..      B        0x128c ; rectangle + 36
        0x00001274:    463d        =F      MOV      r5,r7
        0x00001276:    e005        ..      B        0x1284 ; rectangle + 28
        0x00001278:    4629        )F      MOV      r1,r5
        0x0000127a:    4620         F      MOV      r0,r4
        0x0000127c:    9a0a        ..      LDR      r2,[sp,#0x28]
        0x0000127e:    f7ffff21    ..!.    BL       VGA_plot_pixel ; 0x10c4
        0x00001282:    1c6d        m.      ADDS     r5,r5,#1
        0x00001284:    9804        ..      LDR      r0,[sp,#0x10]
        0x00001286:    4285        .B      CMP      r5,r0
        0x00001288:    dbf6        ..      BLT      0x1278 ; rectangle + 16
        0x0000128a:    1c64        d.      ADDS     r4,r4,#1
        0x0000128c:    9803        ..      LDR      r0,[sp,#0xc]
        0x0000128e:    4284        .B      CMP      r4,r0
        0x00001290:    dbf0        ..      BLT      0x1274 ; rectangle + 12
        0x00001292:    b005        ..      ADD      sp,sp,#0x14
        0x00001294:    bdf0        ..      POP      {r4-r7,pc}
    read_switch
        0x00001296:    b510        ..      PUSH     {r4,lr}
        0x00001298:    f7ffff45    ..E.    BL       GPIO_read ; 0x1126
        0x0000129c:    bd10        ..      POP      {r4,pc}
    write_LED
        0x0000129e:    b510        ..      PUSH     {r4,lr}
        0x000012a0:    4604        .F      MOV      r4,r0
        0x000012a2:    4620         F      MOV      r0,r4
        0x000012a4:    f7ffff46    ..F.    BL       GPIO_write ; 0x1134
        0x000012a8:    bd10        ..      POP      {r4,pc}
    delay
        0x000012aa:    2100        .!      MOVS     r1,#0
        0x000012ac:    e000        ..      B        0x12b0 ; delay + 6
        0x000012ae:    1c49        I.      ADDS     r1,r1,#1
        0x000012b0:    4281        .B      CMP      r1,r0
        0x000012b2:    dbfc        ..      BLT      0x12ae ; delay + 4
        0x000012b4:    4770        pG      BX       lr
    random
        0x000012b6:    b510        ..      PUSH     {r4,lr}
        0x000012b8:    4602        .F      MOV      r2,r0
        0x000012ba:    2329        )#      MOVS     r3,#0x29
        0x000012bc:    065b        [.      LSLS     r3,r3,#25
        0x000012be:    685b        [h      LDR      r3,[r3,#4]
        0x000012c0:    b2d8        ..      UXTB     r0,r3
        0x000012c2:    e001        ..      B        0x12c8 ; random + 18
        0x000012c4:    0643        C.      LSLS     r3,r0,#25
        0x000012c6:    0e18        ..      LSRS     r0,r3,#24
        0x000012c8:    4290        .B      CMP      r0,r2
        0x000012ca:    dbfb        ..      BLT      0x12c4 ; random + 14
        0x000012cc:    e004        ..      B        0x12d8 ; random + 34
        0x000012ce:    4603        .F      MOV      r3,r0
        0x000012d0:    0fc4        ..      LSRS     r4,r0,#31
        0x000012d2:    18e4        ..      ADDS     r4,r4,r3
        0x000012d4:    05e4        ..      LSLS     r4,r4,#23
        0x000012d6:    0e20         .      LSRS     r0,r4,#24
        0x000012d8:    4288        .B      CMP      r0,r1
        0x000012da:    dcf8        ..      BGT      0x12ce ; random + 24
        0x000012dc:    bd10        ..      POP      {r4,pc}
    $d
        0x000012de:    0000        ..      DCW    0
        0x000012e0:    e000ed1c    ....    DCD    3758157084
        0x000012e4:    e000e100    ....    DCD    3758153984
        0x000012e8:    000019fb    ....    DCD    6651
        0x000012ec:    000019fa    ....    DCD    6650
        0x000012f0:    000019f9    ....    DCD    6649
        0x000012f4:    000019f8    ....    DCD    6648
    $t
    .text
    VGAPutc
        0x000012f8:    2105        .!      MOVS     r1,#5
        0x000012fa:    0709        ..      LSLS     r1,r1,#28
        0x000012fc:    6008        .`      STR      r0,[r1,#0]
        0x000012fe:    4770        pG      BX       lr
    UartPutc
        0x00001300:    2151        Q!      MOVS     r1,#0x51
        0x00001302:    0609        ..      LSLS     r1,r1,#24
        0x00001304:    6008        .`      STR      r0,[r1,#0]
        0x00001306:    4770        pG      BX       lr
    UartGetc
        0x00001308:    2051        Q       MOVS     r0,#0x51
        0x0000130a:    0600        ..      LSLS     r0,r0,#24
        0x0000130c:    6800        .h      LDR      r0,[r0,#0]
        0x0000130e:    b2c0        ..      UXTB     r0,r0
        0x00001310:    4770        pG      BX       lr
    KBHIT
        0x00001312:    2051        Q       MOVS     r0,#0x51
        0x00001314:    0600        ..      LSLS     r0,r0,#24
        0x00001316:    6840        @h      LDR      r0,[r0,#4]
        0x00001318:    07c0        ..      LSLS     r0,r0,#31
        0x0000131a:    0fc0        ..      LSRS     r0,r0,#31
        0x0000131c:    2800        .(      CMP      r0,#0
        0x0000131e:    d101        ..      BNE      0x1324 ; KBHIT + 18
        0x00001320:    2001        .       MOVS     r0,#1
        0x00001322:    4770        pG      BX       lr
        0x00001324:    2000        .       MOVS     r0,#0
        0x00001326:    e7fc        ..      B        0x1322 ; KBHIT + 16
    fputc
        0x00001328:    b500        ..      PUSH     {lr}
        0x0000132a:    4602        .F      MOV      r2,r0
        0x0000132c:    460b        .F      MOV      r3,r1
        0x0000132e:    b2d0        ..      UXTB     r0,r2
        0x00001330:    f7ffffe2    ....    BL       VGAPutc ; 0x12f8
        0x00001334:    bd00        ..      POP      {pc}
    fgetc
        0x00001336:    b500        ..      PUSH     {lr}
        0x00001338:    4601        .F      MOV      r1,r0
        0x0000133a:    f7ffffe5    ....    BL       UartGetc ; 0x1308
        0x0000133e:    bd00        ..      POP      {pc}
    ferror
        0x00001340:    4601        .F      MOV      r1,r0
        0x00001342:    2000        .       MOVS     r0,#0
        0x00001344:    2900        .)      CMP      r1,#0
        0x00001346:    d100        ..      BNE      0x134a ; ferror + 10
        0x00001348:    2001        .       MOVS     r0,#1
        0x0000134a:    4770        pG      BX       lr
    _ttywrch
        0x0000134c:    b500        ..      PUSH     {lr}
        0x0000134e:    4602        .F      MOV      r2,r0
        0x00001350:    b2d0        ..      UXTB     r0,r2
        0x00001352:    f7ffffd5    ....    BL       UartPutc ; 0x1300
        0x00001356:    bd00        ..      POP      {pc}
    _sys_exit
        0x00001358:    bf00        ..      NOP      
        0x0000135a:    e7fe        ..      B        0x135a ; _sys_exit + 2
    .text
    __I$use$semihosting
    __use_no_semihosting_swi
        0x0000135c:    4770        pG      BX       lr
        0x0000135e:    0000        ..      MOVS     r0,r0
    .text
    __2printf
        0x00001360:    b40f        ..      PUSH     {r0-r3}
        0x00001362:    4905        .I      LDR      r1,[pc,#20] ; [0x1378] = 0x1a00
        0x00001364:    b510        ..      PUSH     {r4,lr}
        0x00001366:    aa03        ..      ADD      r2,sp,#0xc
        0x00001368:    9802        ..      LDR      r0,[sp,#8]
        0x0000136a:    f000f9bd    ....    BL       _printf_char_file ; 0x16e8
        0x0000136e:    bc10        ..      POP      {r4}
        0x00001370:    bc08        ..      POP      {r3}
        0x00001372:    b004        ..      ADD      sp,sp,#0x10
        0x00001374:    4718        .G      BX       r3
    $d
        0x00001376:    0000        ..      DCW    0
        0x00001378:    00001a00    ....    DCD    6656
    $t
    .text
    __printf
        0x0000137c:    b5f8        ..      PUSH     {r3-r7,lr}
        0x0000137e:    460e        .F      MOV      r6,r1
        0x00001380:    4604        .F      MOV      r4,r0
        0x00001382:    2000        .       MOVS     r0,#0
        0x00001384:    6220         b      STR      r0,[r4,#0x20]
        0x00001386:    4620         F      MOV      r0,r4
        0x00001388:    68e1        .h      LDR      r1,[r4,#0xc]
        0x0000138a:    4788        .G      BLX      r1
        0x0000138c:    2800        .(      CMP      r0,#0
        0x0000138e:    d029        ).      BEQ      0x13e4 ; __printf + 104
        0x00001390:    2825        %(      CMP      r0,#0x25
        0x00001392:    d002        ..      BEQ      0x139a ; __printf + 30
        0x00001394:    6862        bh      LDR      r2,[r4,#4]
        0x00001396:    68a1        .h      LDR      r1,[r4,#8]
        0x00001398:    e020         .      B        0x13dc ; __printf + 96
        0x0000139a:    68e1        .h      LDR      r1,[r4,#0xc]
        0x0000139c:    4620         F      MOV      r0,r4
        0x0000139e:    2700        .'      MOVS     r7,#0
        0x000013a0:    4788        .G      BLX      r1
        0x000013a2:    0005        ..      MOVS     r5,r0
        0x000013a4:    d01e        ..      BEQ      0x13e4 ; __printf + 104
        0x000013a6:    4628        (F      MOV      r0,r5
        0x000013a8:    3841        A8      SUBS     r0,r0,#0x41
        0x000013aa:    2819        .(      CMP      r0,#0x19
        0x000013ac:    d802        ..      BHI      0x13b4 ; __printf + 56
        0x000013ae:    2701        .'      MOVS     r7,#1
        0x000013b0:    02ff        ..      LSLS     r7,r7,#11
        0x000013b2:    3520         5      ADDS     r5,r5,#0x20
        0x000013b4:    4632        2F      MOV      r2,r6
        0x000013b6:    4620         F      MOV      r0,r4
        0x000013b8:    6027        '`      STR      r7,[r4,#0]
        0x000013ba:    4629        )F      MOV      r1,r5
        0x000013bc:    f7fefe90    ....    BL       _printf_percent ; 0xe0
        0x000013c0:    2800        .(      CMP      r0,#0
        0x000013c2:    d008        ..      BEQ      0x13d6 ; __printf + 90
        0x000013c4:    2801        .(      CMP      r0,#1
        0x000013c6:    d004        ..      BEQ      0x13d2 ; __printf + 86
        0x000013c8:    1df6        ..      ADDS     r6,r6,#7
        0x000013ca:    08f6        ..      LSRS     r6,r6,#3
        0x000013cc:    00f6        ..      LSLS     r6,r6,#3
        0x000013ce:    3608        .6      ADDS     r6,r6,#8
        0x000013d0:    e7d9        ..      B        0x1386 ; __printf + 10
        0x000013d2:    1d36        6.      ADDS     r6,r6,#4
        0x000013d4:    e7d7        ..      B        0x1386 ; __printf + 10
        0x000013d6:    6862        bh      LDR      r2,[r4,#4]
        0x000013d8:    4628        (F      MOV      r0,r5
        0x000013da:    68a1        .h      LDR      r1,[r4,#8]
        0x000013dc:    4790        .G      BLX      r2
        0x000013de:    6a20         j      LDR      r0,[r4,#0x20]
        0x000013e0:    1c40        @.      ADDS     r0,r0,#1
        0x000013e2:    e7cf        ..      B        0x1384 ; __printf + 8
        0x000013e4:    6a20         j      LDR      r0,[r4,#0x20]
        0x000013e6:    bdf8        ..      POP      {r3-r7,pc}
    .text
    _printf_str
        0x000013e8:    b570        p.      PUSH     {r4-r6,lr}
        0x000013ea:    460c        .F      MOV      r4,r1
        0x000013ec:    4605        .F      MOV      r5,r0
        0x000013ee:    2a01        .*      CMP      r2,#1
        0x000013f0:    d005        ..      BEQ      0x13fe ; _printf_str + 22
        0x000013f2:    7828        (x      LDRB     r0,[r5,#0]
        0x000013f4:    0680        ..      LSLS     r0,r0,#26
        0x000013f6:    d500        ..      BPL      0x13fa ; _printf_str + 18
        0x000013f8:    69ea        .i      LDR      r2,[r5,#0x1c]
        0x000013fa:    2300        .#      MOVS     r3,#0
        0x000013fc:    e002        ..      B        0x1404 ; _printf_str + 28
        0x000013fe:    2301        .#      MOVS     r3,#1
        0x00001400:    e005        ..      B        0x140e ; _printf_str + 38
        0x00001402:    1c5b        [.      ADDS     r3,r3,#1
        0x00001404:    4293        .B      CMP      r3,r2
        0x00001406:    d202        ..      BCS      0x140e ; _printf_str + 38
        0x00001408:    5ce0        .\      LDRB     r0,[r4,r3]
        0x0000140a:    2800        .(      CMP      r0,#0
        0x0000140c:    d1f9        ..      BNE      0x1402 ; _printf_str + 26
        0x0000140e:    69a8        .i      LDR      r0,[r5,#0x18]
        0x00001410:    18e6        ..      ADDS     r6,r4,r3
        0x00001412:    1ac0        ..      SUBS     r0,r0,r3
        0x00001414:    61a8        .a      STR      r0,[r5,#0x18]
        0x00001416:    6a28        (j      LDR      r0,[r5,#0x20]
        0x00001418:    18c0        ..      ADDS     r0,r0,r3
        0x0000141a:    6228        (b      STR      r0,[r5,#0x20]
        0x0000141c:    4628        (F      MOV      r0,r5
        0x0000141e:    46c0        .F      MOV      r8,r8
        0x00001420:    46c0        .F      MOV      r8,r8
        0x00001422:    e004        ..      B        0x142e ; _printf_str + 70
        0x00001424:    686a        jh      LDR      r2,[r5,#4]
        0x00001426:    7820         x      LDRB     r0,[r4,#0]
        0x00001428:    68a9        .h      LDR      r1,[r5,#8]
        0x0000142a:    1c64        d.      ADDS     r4,r4,#1
        0x0000142c:    4790        .G      BLX      r2
        0x0000142e:    42b4        .B      CMP      r4,r6
        0x00001430:    d3f8        ..      BCC      0x1424 ; _printf_str + 60
        0x00001432:    4628        (F      MOV      r0,r5
        0x00001434:    46c0        .F      MOV      r8,r8
        0x00001436:    46c0        .F      MOV      r8,r8
        0x00001438:    bd70        p.      POP      {r4-r6,pc}
        0x0000143a:    0000        ..      MOVS     r0,r0
    .text
    _printf_int_dec
        0x0000143c:    b5f7        ..      PUSH     {r0-r2,r4-r7,lr}
        0x0000143e:    2500        .%      MOVS     r5,#0
        0x00001440:    2975        u)      CMP      r1,#0x75
        0x00001442:    6810        .h      LDR      r0,[r2,#0]
        0x00001444:    9900        ..      LDR      r1,[sp,#0]
        0x00001446:    a614        ..      ADR      r6,{pc}+0x52 ; 0x1498
        0x00001448:    d011        ..      BEQ      0x146e ; _printf_int_dec + 50
        0x0000144a:    46c0        .F      MOV      r8,r8
        0x0000144c:    46c0        .F      MOV      r8,r8
        0x0000144e:    2800        .(      CMP      r0,#0
        0x00001450:    da02        ..      BGE      0x1458 ; _printf_int_dec + 28
        0x00001452:    4240        @B      RSBS     r0,r0,#0
        0x00001454:    a611        ..      ADR      r6,{pc}+0x48 ; 0x149c
        0x00001456:    e008        ..      B        0x146a ; _printf_int_dec + 46
        0x00001458:    9900        ..      LDR      r1,[sp,#0]
        0x0000145a:    6809        .h      LDR      r1,[r1,#0]
        0x0000145c:    078a        ..      LSLS     r2,r1,#30
        0x0000145e:    d501        ..      BPL      0x1464 ; _printf_int_dec + 40
        0x00001460:    a60f        ..      ADR      r6,{pc}+0x40 ; 0x14a0
        0x00001462:    e002        ..      B        0x146a ; _printf_int_dec + 46
        0x00001464:    0749        I.      LSLS     r1,r1,#29
        0x00001466:    d504        ..      BPL      0x1472 ; _printf_int_dec + 54
        0x00001468:    a60e        ..      ADR      r6,{pc}+0x3c ; 0x14a4
        0x0000146a:    2501        .%      MOVS     r5,#1
        0x0000146c:    e001        ..      B        0x1472 ; _printf_int_dec + 54
        0x0000146e:    46c0        .F      MOV      r8,r8
        0x00001470:    46c0        .F      MOV      r8,r8
        0x00001472:    9f00        ..      LDR      r7,[sp,#0]
        0x00001474:    2400        .$      MOVS     r4,#0
        0x00001476:    3724        $7      ADDS     r7,r7,#0x24
        0x00001478:    e004        ..      B        0x1484 ; _printf_int_dec + 72
        0x0000147a:    f000f949    ..I.    BL       __rt_udiv10 ; 0x1710
        0x0000147e:    3130        01      ADDS     r1,r1,#0x30
        0x00001480:    5539        9U      STRB     r1,[r7,r4]
        0x00001482:    1c64        d.      ADDS     r4,r4,#1
        0x00001484:    2800        .(      CMP      r0,#0
        0x00001486:    d1f8        ..      BNE      0x147a ; _printf_int_dec + 62
        0x00001488:    462b        +F      MOV      r3,r5
        0x0000148a:    4632        2F      MOV      r2,r6
        0x0000148c:    4621        !F      MOV      r1,r4
        0x0000148e:    9800        ..      LDR      r0,[sp,#0]
        0x00001490:    f000f8ba    ....    BL       _printf_int_common ; 0x1608
        0x00001494:    bdfe        ..      POP      {r1-r7,pc}
    $d
        0x00001496:    0000        ..      DCW    0
        0x00001498:    00000000    ....    DCD    0
        0x0000149c:    0000002d    -...    DCD    45
        0x000014a0:    0000002b    +...    DCD    43
        0x000014a4:    00000020     ...    DCD    32
    $t
    .text
    __aeabi_uidiv
    __aeabi_uidivmod
        0x000014a8:    2200        ."      MOVS     r2,#0
        0x000014aa:    0903        ..      LSRS     r3,r0,#4
        0x000014ac:    428b        .B      CMP      r3,r1
        0x000014ae:    d32c        ,.      BCC      0x150a ; __aeabi_idiv + 78
        0x000014b0:    0a03        ..      LSRS     r3,r0,#8
        0x000014b2:    428b        .B      CMP      r3,r1
        0x000014b4:    d311        ..      BCC      0x14da ; __aeabi_idiv + 30
        0x000014b6:    2300        .#      MOVS     r3,#0
        0x000014b8:    469c        .F      MOV      r12,r3
        0x000014ba:    e04e        N.      B        0x155a ; __aeabi_idiv + 158
    __aeabi_idiv
    __aeabi_idivmod
        0x000014bc:    4603        .F      MOV      r3,r0
        0x000014be:    430b        .C      ORRS     r3,r3,r1
        0x000014c0:    d43c        <.      BMI      0x153c ; __aeabi_idiv + 128
        0x000014c2:    2200        ."      MOVS     r2,#0
        0x000014c4:    0843        C.      LSRS     r3,r0,#1
        0x000014c6:    428b        .B      CMP      r3,r1
        0x000014c8:    d331        1.      BCC      0x152e ; __aeabi_idiv + 114
        0x000014ca:    0903        ..      LSRS     r3,r0,#4
        0x000014cc:    428b        .B      CMP      r3,r1
        0x000014ce:    d31c        ..      BCC      0x150a ; __aeabi_idiv + 78
        0x000014d0:    0a03        ..      LSRS     r3,r0,#8
        0x000014d2:    428b        .B      CMP      r3,r1
        0x000014d4:    d301        ..      BCC      0x14da ; __aeabi_idiv + 30
        0x000014d6:    4694        .F      MOV      r12,r2
        0x000014d8:    e03f        ?.      B        0x155a ; __aeabi_idiv + 158
        0x000014da:    09c3        ..      LSRS     r3,r0,#7
        0x000014dc:    428b        .B      CMP      r3,r1
        0x000014de:    d301        ..      BCC      0x14e4 ; __aeabi_idiv + 40
        0x000014e0:    01cb        ..      LSLS     r3,r1,#7
        0x000014e2:    1ac0        ..      SUBS     r0,r0,r3
        0x000014e4:    4152        RA      ADCS     r2,r2,r2
        0x000014e6:    0983        ..      LSRS     r3,r0,#6
        0x000014e8:    428b        .B      CMP      r3,r1
        0x000014ea:    d301        ..      BCC      0x14f0 ; __aeabi_idiv + 52
        0x000014ec:    018b        ..      LSLS     r3,r1,#6
        0x000014ee:    1ac0        ..      SUBS     r0,r0,r3
        0x000014f0:    4152        RA      ADCS     r2,r2,r2
        0x000014f2:    0943        C.      LSRS     r3,r0,#5
        0x000014f4:    428b        .B      CMP      r3,r1
        0x000014f6:    d301        ..      BCC      0x14fc ; __aeabi_idiv + 64
        0x000014f8:    014b        K.      LSLS     r3,r1,#5
        0x000014fa:    1ac0        ..      SUBS     r0,r0,r3
        0x000014fc:    4152        RA      ADCS     r2,r2,r2
        0x000014fe:    0903        ..      LSRS     r3,r0,#4
        0x00001500:    428b        .B      CMP      r3,r1
        0x00001502:    d301        ..      BCC      0x1508 ; __aeabi_idiv + 76
        0x00001504:    010b        ..      LSLS     r3,r1,#4
        0x00001506:    1ac0        ..      SUBS     r0,r0,r3
        0x00001508:    4152        RA      ADCS     r2,r2,r2
        0x0000150a:    08c3        ..      LSRS     r3,r0,#3
        0x0000150c:    428b        .B      CMP      r3,r1
        0x0000150e:    d301        ..      BCC      0x1514 ; __aeabi_idiv + 88
        0x00001510:    00cb        ..      LSLS     r3,r1,#3
        0x00001512:    1ac0        ..      SUBS     r0,r0,r3
        0x00001514:    4152        RA      ADCS     r2,r2,r2
        0x00001516:    0883        ..      LSRS     r3,r0,#2
        0x00001518:    428b        .B      CMP      r3,r1
        0x0000151a:    d301        ..      BCC      0x1520 ; __aeabi_idiv + 100
        0x0000151c:    008b        ..      LSLS     r3,r1,#2
        0x0000151e:    1ac0        ..      SUBS     r0,r0,r3
        0x00001520:    4152        RA      ADCS     r2,r2,r2
        0x00001522:    0843        C.      LSRS     r3,r0,#1
        0x00001524:    428b        .B      CMP      r3,r1
        0x00001526:    d301        ..      BCC      0x152c ; __aeabi_idiv + 112
        0x00001528:    004b        K.      LSLS     r3,r1,#1
        0x0000152a:    1ac0        ..      SUBS     r0,r0,r3
        0x0000152c:    4152        RA      ADCS     r2,r2,r2
        0x0000152e:    1a41        A.      SUBS     r1,r0,r1
        0x00001530:    d200        ..      BCS      0x1534 ; __aeabi_idiv + 120
        0x00001532:    4601        .F      MOV      r1,r0
        0x00001534:    4152        RA      ADCS     r2,r2,r2
        0x00001536:    4610        .F      MOV      r0,r2
        0x00001538:    4770        pG      BX       lr
        0x0000153a:    e05d        ].      B        0x15f8 ; __aeabi_idiv + 316
        0x0000153c:    0fca        ..      LSRS     r2,r1,#31
        0x0000153e:    d000        ..      BEQ      0x1542 ; __aeabi_idiv + 134
        0x00001540:    4249        IB      RSBS     r1,r1,#0
        0x00001542:    1003        ..      ASRS     r3,r0,#32
        0x00001544:    d300        ..      BCC      0x1548 ; __aeabi_idiv + 140
        0x00001546:    4240        @B      RSBS     r0,r0,#0
        0x00001548:    4053        S@      EORS     r3,r3,r2
        0x0000154a:    2200        ."      MOVS     r2,#0
        0x0000154c:    469c        .F      MOV      r12,r3
        0x0000154e:    0903        ..      LSRS     r3,r0,#4
        0x00001550:    428b        .B      CMP      r3,r1
        0x00001552:    d32d        -.      BCC      0x15b0 ; __aeabi_idiv + 244
        0x00001554:    0a03        ..      LSRS     r3,r0,#8
        0x00001556:    428b        .B      CMP      r3,r1
        0x00001558:    d312        ..      BCC      0x1580 ; __aeabi_idiv + 196
        0x0000155a:    22fc        ."      MOVS     r2,#0xfc
        0x0000155c:    0189        ..      LSLS     r1,r1,#6
        0x0000155e:    ba12        ..      REV      r2,r2
        0x00001560:    0a03        ..      LSRS     r3,r0,#8
        0x00001562:    428b        .B      CMP      r3,r1
        0x00001564:    d30c        ..      BCC      0x1580 ; __aeabi_idiv + 196
        0x00001566:    0189        ..      LSLS     r1,r1,#6
        0x00001568:    1192        ..      ASRS     r2,r2,#6
        0x0000156a:    428b        .B      CMP      r3,r1
        0x0000156c:    d308        ..      BCC      0x1580 ; __aeabi_idiv + 196
        0x0000156e:    0189        ..      LSLS     r1,r1,#6
        0x00001570:    1192        ..      ASRS     r2,r2,#6
        0x00001572:    428b        .B      CMP      r3,r1
        0x00001574:    d304        ..      BCC      0x1580 ; __aeabi_idiv + 196
        0x00001576:    0189        ..      LSLS     r1,r1,#6
        0x00001578:    d03a        :.      BEQ      0x15f0 ; __aeabi_idiv + 308
        0x0000157a:    1192        ..      ASRS     r2,r2,#6
        0x0000157c:    e000        ..      B        0x1580 ; __aeabi_idiv + 196
        0x0000157e:    0989        ..      LSRS     r1,r1,#6
        0x00001580:    09c3        ..      LSRS     r3,r0,#7
        0x00001582:    428b        .B      CMP      r3,r1
        0x00001584:    d301        ..      BCC      0x158a ; __aeabi_idiv + 206
        0x00001586:    01cb        ..      LSLS     r3,r1,#7
        0x00001588:    1ac0        ..      SUBS     r0,r0,r3
        0x0000158a:    4152        RA      ADCS     r2,r2,r2
        0x0000158c:    0983        ..      LSRS     r3,r0,#6
        0x0000158e:    428b        .B      CMP      r3,r1
        0x00001590:    d301        ..      BCC      0x1596 ; __aeabi_idiv + 218
        0x00001592:    018b        ..      LSLS     r3,r1,#6
        0x00001594:    1ac0        ..      SUBS     r0,r0,r3
        0x00001596:    4152        RA      ADCS     r2,r2,r2
        0x00001598:    0943        C.      LSRS     r3,r0,#5
        0x0000159a:    428b        .B      CMP      r3,r1
        0x0000159c:    d301        ..      BCC      0x15a2 ; __aeabi_idiv + 230
        0x0000159e:    014b        K.      LSLS     r3,r1,#5
        0x000015a0:    1ac0        ..      SUBS     r0,r0,r3
        0x000015a2:    4152        RA      ADCS     r2,r2,r2
        0x000015a4:    0903        ..      LSRS     r3,r0,#4
        0x000015a6:    428b        .B      CMP      r3,r1
        0x000015a8:    d301        ..      BCC      0x15ae ; __aeabi_idiv + 242
        0x000015aa:    010b        ..      LSLS     r3,r1,#4
        0x000015ac:    1ac0        ..      SUBS     r0,r0,r3
        0x000015ae:    4152        RA      ADCS     r2,r2,r2
        0x000015b0:    08c3        ..      LSRS     r3,r0,#3
        0x000015b2:    428b        .B      CMP      r3,r1
        0x000015b4:    d301        ..      BCC      0x15ba ; __aeabi_idiv + 254
        0x000015b6:    00cb        ..      LSLS     r3,r1,#3
        0x000015b8:    1ac0        ..      SUBS     r0,r0,r3
        0x000015ba:    4152        RA      ADCS     r2,r2,r2
        0x000015bc:    0883        ..      LSRS     r3,r0,#2
        0x000015be:    428b        .B      CMP      r3,r1
        0x000015c0:    d301        ..      BCC      0x15c6 ; __aeabi_idiv + 266
        0x000015c2:    008b        ..      LSLS     r3,r1,#2
        0x000015c4:    1ac0        ..      SUBS     r0,r0,r3
        0x000015c6:    4152        RA      ADCS     r2,r2,r2
        0x000015c8:    d2d9        ..      BCS      0x157e ; __aeabi_idiv + 194
        0x000015ca:    0843        C.      LSRS     r3,r0,#1
        0x000015cc:    428b        .B      CMP      r3,r1
        0x000015ce:    d301        ..      BCC      0x15d4 ; __aeabi_idiv + 280
        0x000015d0:    004b        K.      LSLS     r3,r1,#1
        0x000015d2:    1ac0        ..      SUBS     r0,r0,r3
        0x000015d4:    4152        RA      ADCS     r2,r2,r2
        0x000015d6:    1a41        A.      SUBS     r1,r0,r1
        0x000015d8:    d200        ..      BCS      0x15dc ; __aeabi_idiv + 288
        0x000015da:    4601        .F      MOV      r1,r0
        0x000015dc:    4663        cF      MOV      r3,r12
        0x000015de:    4152        RA      ADCS     r2,r2,r2
        0x000015e0:    105b        [.      ASRS     r3,r3,#1
        0x000015e2:    4610        .F      MOV      r0,r2
        0x000015e4:    d301        ..      BCC      0x15ea ; __aeabi_idiv + 302
        0x000015e6:    4240        @B      RSBS     r0,r0,#0
        0x000015e8:    2b00        .+      CMP      r3,#0
        0x000015ea:    d500        ..      BPL      0x15ee ; __aeabi_idiv + 306
        0x000015ec:    4249        IB      RSBS     r1,r1,#0
        0x000015ee:    4770        pG      BX       lr
        0x000015f0:    4663        cF      MOV      r3,r12
        0x000015f2:    105b        [.      ASRS     r3,r3,#1
        0x000015f4:    d300        ..      BCC      0x15f8 ; __aeabi_idiv + 316
        0x000015f6:    4240        @B      RSBS     r0,r0,#0
        0x000015f8:    b501        ..      PUSH     {r0,lr}
        0x000015fa:    2000        .       MOVS     r0,#0
        0x000015fc:    46c0        .F      MOV      r8,r8
        0x000015fe:    46c0        .F      MOV      r8,r8
        0x00001600:    bd02        ..      POP      {r1,pc}
    .text
    __use_two_region_memory
        0x00001602:    4770        pG      BX       lr
    __rt_heap_escrow$2region
        0x00001604:    4770        pG      BX       lr
    __rt_heap_expand$2region
        0x00001606:    4770        pG      BX       lr
    .text
    _printf_int_common
        0x00001608:    b5ff        ..      PUSH     {r0-r7,lr}
        0x0000160a:    4604        .F      MOV      r4,r0
        0x0000160c:    460d        .F      MOV      r5,r1
        0x0000160e:    b081        ..      SUB      sp,sp,#4
        0x00001610:    3024        $0      ADDS     r0,r0,#0x24
        0x00001612:    9000        ..      STR      r0,[sp,#0]
        0x00001614:    6821        !h      LDR      r1,[r4,#0]
        0x00001616:    0688        ..      LSLS     r0,r1,#26
        0x00001618:    d504        ..      BPL      0x1624 ; _printf_int_common + 28
        0x0000161a:    2210        ."      MOVS     r2,#0x10
        0x0000161c:    69e0        .i      LDR      r0,[r4,#0x1c]
        0x0000161e:    4391        .C      BICS     r1,r1,r2
        0x00001620:    6021        !`      STR      r1,[r4,#0]
        0x00001622:    e000        ..      B        0x1626 ; _printf_int_common + 30
        0x00001624:    2001        .       MOVS     r0,#1
        0x00001626:    42a8        .B      CMP      r0,r5
        0x00001628:    dd01        ..      BLE      0x162e ; _printf_int_common + 38
        0x0000162a:    1b47        G.      SUBS     r7,r0,r5
        0x0000162c:    e000        ..      B        0x1630 ; _printf_int_common + 40
        0x0000162e:    2700        .'      MOVS     r7,#0
        0x00001630:    9804        ..      LDR      r0,[sp,#0x10]
        0x00001632:    69a1        .i      LDR      r1,[r4,#0x18]
        0x00001634:    197a        z.      ADDS     r2,r7,r5
        0x00001636:    1810        ..      ADDS     r0,r2,r0
        0x00001638:    1a08        ..      SUBS     r0,r1,r0
        0x0000163a:    61a0        .a      STR      r0,[r4,#0x18]
        0x0000163c:    7820         x      LDRB     r0,[r4,#0]
        0x0000163e:    06c0        ..      LSLS     r0,r0,#27
        0x00001640:    d402        ..      BMI      0x1648 ; _printf_int_common + 64
        0x00001642:    4620         F      MOV      r0,r4
        0x00001644:    46c0        .F      MOV      r8,r8
        0x00001646:    46c0        .F      MOV      r8,r8
        0x00001648:    2600        .&      MOVS     r6,#0
        0x0000164a:    e008        ..      B        0x165e ; _printf_int_common + 86
        0x0000164c:    9803        ..      LDR      r0,[sp,#0xc]
        0x0000164e:    6862        bh      LDR      r2,[r4,#4]
        0x00001650:    68a1        .h      LDR      r1,[r4,#8]
        0x00001652:    5d80        .]      LDRB     r0,[r0,r6]
        0x00001654:    4790        .G      BLX      r2
        0x00001656:    6a20         j      LDR      r0,[r4,#0x20]
        0x00001658:    1c40        @.      ADDS     r0,r0,#1
        0x0000165a:    1c76        v.      ADDS     r6,r6,#1
        0x0000165c:    6220         b      STR      r0,[r4,#0x20]
        0x0000165e:    9804        ..      LDR      r0,[sp,#0x10]
        0x00001660:    4286        .B      CMP      r6,r0
        0x00001662:    dbf3        ..      BLT      0x164c ; _printf_int_common + 68
        0x00001664:    7820         x      LDRB     r0,[r4,#0]
        0x00001666:    06c0        ..      LSLS     r0,r0,#27
        0x00001668:    d50a        ..      BPL      0x1680 ; _printf_int_common + 120
        0x0000166a:    4620         F      MOV      r0,r4
        0x0000166c:    46c0        .F      MOV      r8,r8
        0x0000166e:    46c0        .F      MOV      r8,r8
        0x00001670:    e006        ..      B        0x1680 ; _printf_int_common + 120
        0x00001672:    6862        bh      LDR      r2,[r4,#4]
        0x00001674:    68a1        .h      LDR      r1,[r4,#8]
        0x00001676:    2030        0       MOVS     r0,#0x30
        0x00001678:    4790        .G      BLX      r2
        0x0000167a:    6a20         j      LDR      r0,[r4,#0x20]
        0x0000167c:    1c40        @.      ADDS     r0,r0,#1
        0x0000167e:    6220         b      STR      r0,[r4,#0x20]
        0x00001680:    4638        8F      MOV      r0,r7
        0x00001682:    1e7f        ..      SUBS     r7,r7,#1
        0x00001684:    2800        .(      CMP      r0,#0
        0x00001686:    dcf4        ..      BGT      0x1672 ; _printf_int_common + 106
        0x00001688:    e007        ..      B        0x169a ; _printf_int_common + 146
        0x0000168a:    9800        ..      LDR      r0,[sp,#0]
        0x0000168c:    6862        bh      LDR      r2,[r4,#4]
        0x0000168e:    68a1        .h      LDR      r1,[r4,#8]
        0x00001690:    5d40        @]      LDRB     r0,[r0,r5]
        0x00001692:    4790        .G      BLX      r2
        0x00001694:    6a20         j      LDR      r0,[r4,#0x20]
        0x00001696:    1c40        @.      ADDS     r0,r0,#1
        0x00001698:    6220         b      STR      r0,[r4,#0x20]
        0x0000169a:    4628        (F      MOV      r0,r5
        0x0000169c:    1e6d        m.      SUBS     r5,r5,#1
        0x0000169e:    2800        .(      CMP      r0,#0
        0x000016a0:    dcf3        ..      BGT      0x168a ; _printf_int_common + 130
        0x000016a2:    4620         F      MOV      r0,r4
        0x000016a4:    46c0        .F      MOV      r8,r8
        0x000016a6:    46c0        .F      MOV      r8,r8
        0x000016a8:    7820         x      LDRB     r0,[r4,#0]
        0x000016aa:    0600        ..      LSLS     r0,r0,#24
        0x000016ac:    d502        ..      BPL      0x16b4 ; _printf_int_common + 172
        0x000016ae:    2002        .       MOVS     r0,#2
        0x000016b0:    b005        ..      ADD      sp,sp,#0x14
        0x000016b2:    bdf0        ..      POP      {r4-r7,pc}
        0x000016b4:    2001        .       MOVS     r0,#1
        0x000016b6:    e7fb        ..      B        0x16b0 ; _printf_int_common + 168
    .text
    _printf_cs_common
        0x000016b8:    b510        ..      PUSH     {r4,lr}
        0x000016ba:    6943        Ci      LDR      r3,[r0,#0x14]
        0x000016bc:    2b00        .+      CMP      r3,#0
        0x000016be:    d002        ..      BEQ      0x16c6 ; _printf_cs_common + 14
        0x000016c0:    46c0        .F      MOV      r8,r8
        0x000016c2:    46c0        .F      MOV      r8,r8
        0x000016c4:    e001        ..      B        0x16ca ; _printf_cs_common + 18
        0x000016c6:    f7fffe8f    ....    BL       _printf_str ; 0x13e8
        0x000016ca:    2001        .       MOVS     r0,#1
        0x000016cc:    bd10        ..      POP      {r4,pc}
    _printf_char
        0x000016ce:    7812        .x      LDRB     r2,[r2,#0]
        0x000016d0:    4601        .F      MOV      r1,r0
        0x000016d2:    3124        $1      ADDS     r1,r1,#0x24
        0x000016d4:    700a        .p      STRB     r2,[r1,#0]
        0x000016d6:    2200        ."      MOVS     r2,#0
        0x000016d8:    704a        Jp      STRB     r2,[r1,#1]
        0x000016da:    2201        ."      MOVS     r2,#1
        0x000016dc:    e7ec        ..      B        _printf_cs_common ; 0x16b8
    _printf_string
        0x000016de:    6811        .h      LDR      r1,[r2,#0]
        0x000016e0:    2200        ."      MOVS     r2,#0
        0x000016e2:    43d2        .C      MVNS     r2,r2
        0x000016e4:    e7e8        ..      B        _printf_cs_common ; 0x16b8
        0x000016e6:    0000        ..      MOVS     r0,r0
    .text
    _printf_char_file
        0x000016e8:    4b08        .K      LDR      r3,[pc,#32] ; [0x170c] = 0xfffffc37
        0x000016ea:    b570        p.      PUSH     {r4-r6,lr}
        0x000016ec:    460d        .F      MOV      r5,r1
        0x000016ee:    447b        {D      ADD      r3,r3,pc
        0x000016f0:    f000f827    ..'.    BL       _printf_char_common ; 0x1742
        0x000016f4:    4604        .F      MOV      r4,r0
        0x000016f6:    4628        (F      MOV      r0,r5
        0x000016f8:    f7fffe22    ..".    BL       ferror ; 0x1340
        0x000016fc:    2800        .(      CMP      r0,#0
        0x000016fe:    d002        ..      BEQ      0x1706 ; _printf_char_file + 30
        0x00001700:    2000        .       MOVS     r0,#0
        0x00001702:    43c0        .C      MVNS     r0,r0
        0x00001704:    bd70        p.      POP      {r4-r6,pc}
        0x00001706:    4620         F      MOV      r0,r4
        0x00001708:    bd70        p.      POP      {r4-r6,pc}
    $d
        0x0000170a:    0000        ..      DCW    0
        0x0000170c:    fffffc37    7...    DCD    4294966327
    $t
    .text
    __rt_udiv10
        0x00001710:    4601        .F      MOV      r1,r0
        0x00001712:    0880        ..      LSRS     r0,r0,#2
        0x00001714:    1a08        ..      SUBS     r0,r1,r0
        0x00001716:    0902        ..      LSRS     r2,r0,#4
        0x00001718:    1810        ..      ADDS     r0,r2,r0
        0x0000171a:    0a02        ..      LSRS     r2,r0,#8
        0x0000171c:    1810        ..      ADDS     r0,r2,r0
        0x0000171e:    0c02        ..      LSRS     r2,r0,#16
        0x00001720:    1810        ..      ADDS     r0,r2,r0
        0x00001722:    08c0        ..      LSRS     r0,r0,#3
        0x00001724:    0082        ..      LSLS     r2,r0,#2
        0x00001726:    1812        ..      ADDS     r2,r2,r0
        0x00001728:    0052        R.      LSLS     r2,r2,#1
        0x0000172a:    1a89        ..      SUBS     r1,r1,r2
        0x0000172c:    e001        ..      B        0x1732 ; __rt_udiv10 + 34
        0x0000172e:    1c40        @.      ADDS     r0,r0,#1
        0x00001730:    390a        .9      SUBS     r1,r1,#0xa
        0x00001732:    290a        .)      CMP      r1,#0xa
        0x00001734:    d2fb        ..      BCS      0x172e ; __rt_udiv10 + 30
        0x00001736:    4770        pG      BX       lr
    .text
    _printf_input_char
        0x00001738:    6901        .i      LDR      r1,[r0,#0x10]
        0x0000173a:    1c4a        J.      ADDS     r2,r1,#1
        0x0000173c:    6102        .a      STR      r2,[r0,#0x10]
        0x0000173e:    7808        .x      LDRB     r0,[r1,#0]
        0x00001740:    4770        pG      BX       lr
    _printf_char_common
        0x00001742:    b500        ..      PUSH     {lr}
        0x00001744:    b08f        ..      SUB      sp,sp,#0x3c
        0x00001746:    9102        ..      STR      r1,[sp,#8]
        0x00001748:    2100        .!      MOVS     r1,#0
        0x0000174a:    9105        ..      STR      r1,[sp,#0x14]
        0x0000174c:    4905        .I      LDR      r1,[pc,#20] ; [0x1764] = 0xffffffe5
        0x0000174e:    9301        ..      STR      r3,[sp,#4]
        0x00001750:    4479        yD      ADD      r1,r1,pc
        0x00001752:    9103        ..      STR      r1,[sp,#0xc]
        0x00001754:    4611        .F      MOV      r1,r2
        0x00001756:    9004        ..      STR      r0,[sp,#0x10]
        0x00001758:    4668        hF      MOV      r0,sp
        0x0000175a:    f7fffe0f    ....    BL       __printf ; 0x137c
        0x0000175e:    b00f        ..      ADD      sp,sp,#0x3c
        0x00001760:    bd00        ..      POP      {pc}
    $d
        0x00001762:    0000        ..      DCW    0
        0x00001764:    ffffffe5    ....    DCD    4294967269
    $t
    .text
    __user_setup_stackheap
        0x00001768:    4675        uF      MOV      r5,lr
        0x0000176a:    f000f825    ..%.    BL       __user_libspace ; 0x17b8
        0x0000176e:    46ae        .F      MOV      lr,r5
        0x00001770:    0005        ..      MOVS     r5,r0
        0x00001772:    4669        iF      MOV      r1,sp
        0x00001774:    4653        SF      MOV      r3,r10
        0x00001776:    08c0        ..      LSRS     r0,r0,#3
        0x00001778:    00c0        ..      LSLS     r0,r0,#3
        0x0000177a:    4685        .F      MOV      sp,r0
        0x0000177c:    b018        ..      ADD      sp,sp,#0x60
        0x0000177e:    b520         .      PUSH     {r5,lr}
        0x00001780:    f7fffc90    ....    BL       __user_initial_stackheap ; 0x10a4
        0x00001784:    bc60        `.      POP      {r5,r6}
        0x00001786:    2700        .'      MOVS     r7,#0
        0x00001788:    0849        I.      LSRS     r1,r1,#1
        0x0000178a:    46b6        .F      MOV      lr,r6
        0x0000178c:    2600        .&      MOVS     r6,#0
        0x0000178e:    c5c0        ..      STM      r5!,{r6,r7}
        0x00001790:    c5c0        ..      STM      r5!,{r6,r7}
        0x00001792:    c5c0        ..      STM      r5!,{r6,r7}
        0x00001794:    c5c0        ..      STM      r5!,{r6,r7}
        0x00001796:    c5c0        ..      STM      r5!,{r6,r7}
        0x00001798:    c5c0        ..      STM      r5!,{r6,r7}
        0x0000179a:    c5c0        ..      STM      r5!,{r6,r7}
        0x0000179c:    c5c0        ..      STM      r5!,{r6,r7}
        0x0000179e:    3d40        @=      SUBS     r5,r5,#0x40
        0x000017a0:    0049        I.      LSLS     r1,r1,#1
        0x000017a2:    468d        .F      MOV      sp,r1
        0x000017a4:    4770        pG      BX       lr
    .text
    exit
        0x000017a6:    b510        ..      PUSH     {r4,lr}
        0x000017a8:    4604        .F      MOV      r4,r0
        0x000017aa:    46c0        .F      MOV      r8,r8
        0x000017ac:    46c0        .F      MOV      r8,r8
        0x000017ae:    4620         F      MOV      r0,r4
        0x000017b0:    f7fefcb0    ....    BL       __rt_exit ; 0x114
        0x000017b4:    bd10        ..      POP      {r4,pc}
        0x000017b6:    0000        ..      MOVS     r0,r0
    .text
    __user_libspace
    __user_perproc_libspace
    __user_perthread_libspace
        0x000017b8:    4800        .H      LDR      r0,[pc,#0] ; [0x17bc] = 0x2064
        0x000017ba:    4770        pG      BX       lr
    $d
        0x000017bc:    00002064    d ..    DCD    8292
    $d.realdata
    .conststring
        0x000017c0:    6465520a    .Red    DCD    1684361738
        0x000017c4:    616e5320     Sna    DCD    1634620192
        0x000017c8:    4320656b    ke C    DCD    1126196587
        0x000017cc:    696c6c6f    olli    DCD    1768713327
        0x000017d0:    20646564    ded     DCD    543450468
        0x000017d4:    68746977    with    DCD    1752459639
        0x000017d8:    646f6220     bod    DCD    1685021216
        0x000017dc:    470a2179    y!.G    DCD    1191846265
        0x000017e0:    6e656572    reen    DCD    1852138866
        0x000017e4:    616e5320     Sna    DCD    1634620192
        0x000017e8:    5320656b    ke S    DCD    1394632043
        0x000017ec:    65726f63    core    DCD    1701998435
        0x000017f0:    6425203a    : %d    DCD    1680154682
        0x000017f4:    6465520a    .Red    DCD    1684361738
        0x000017f8:    616e5320     Sna    DCD    1634620192
        0x000017fc:    5320656b    ke S    DCD    1394632043
        0x00001800:    65726f63    core    DCD    1701998435
        0x00001804:    6425203a    : %d    DCD    1680154682
        0x00001808:    00000000    ....    DCD    0
        0x0000180c:    6572470a    .Gre    DCD    1701988106
        0x00001810:    53206e65    en S    DCD    1394634341
        0x00001814:    656b616e    nake    DCD    1701536110
        0x00001818:    6e6f5720     Won    DCD    1852790560
        0x0000181c:    65520a21    !.Re    DCD    1699875361
        0x00001820:    6e532064    d Sn    DCD    1850941540
        0x00001824:    20656b61    ake     DCD    543517537
        0x00001828:    20746968    hit     DCD    544500072
        0x0000182c:    68746977    with    DCD    1752459639
        0x00001830:    756f6220     bou    DCD    1970233888
        0x00001834:    7261646e    ndar    DCD    1918985326
        0x00001838:    470a2179    y!.G    DCD    1191846265
        0x0000183c:    6e656572    reen    DCD    1852138866
        0x00001840:    616e5320     Sna    DCD    1634620192
        0x00001844:    5320656b    ke S    DCD    1394632043
        0x00001848:    65726f63    core    DCD    1701998435
        0x0000184c:    6425203a    : %d    DCD    1680154682
        0x00001850:    6465520a    .Red    DCD    1684361738
        0x00001854:    616e5320     Sna    DCD    1634620192
        0x00001858:    5320656b    ke S    DCD    1394632043
        0x0000185c:    65726f63    core    DCD    1701998435
        0x00001860:    6425203a    : %d    DCD    1680154682
        0x00001864:    00000000    ....    DCD    0
        0x00001868:    6465520a    .Red    DCD    1684361738
        0x0000186c:    616e5320     Sna    DCD    1634620192
        0x00001870:    4820656b    ke H    DCD    1210082667
        0x00001874:    69207469    it i    DCD    1763734633
        0x00001878:    6c657374    tsel    DCD    1818588020
        0x0000187c:    520a2166    f!.R    DCD    1376395622
        0x00001880:    53206465    ed S    DCD    1394631781
        0x00001884:    656b616e    nake    DCD    1701536110
        0x00001888:    6f635320     Sco    DCD    1868780320
        0x0000188c:    203a6572    re:     DCD    540697970
        0x00001890:    470a6425    %d.G    DCD    1191863333
        0x00001894:    6e656572    reen    DCD    1852138866
        0x00001898:    616e5320     Sna    DCD    1634620192
        0x0000189c:    5320656b    ke S    DCD    1394632043
        0x000018a0:    65726f63    core    DCD    1701998435
        0x000018a4:    6425203a    : %d    DCD    1680154682
        0x000018a8:    00000000    ....    DCD    0
        0x000018ac:    6572470a    .Gre    DCD    1701988106
        0x000018b0:    53206e65    en S    DCD    1394634341
        0x000018b4:    656b616e    nake    DCD    1701536110
        0x000018b8:    74694820     Hit    DCD    1953056800
        0x000018bc:    73746920     its    DCD    1937008928
        0x000018c0:    21666c65    elf!    DCD    560360549
        0x000018c4:    6465520a    .Red    DCD    1684361738
        0x000018c8:    616e5320     Sna    DCD    1634620192
        0x000018cc:    5320656b    ke S    DCD    1394632043
        0x000018d0:    65726f63    core    DCD    1701998435
        0x000018d4:    6425203a    : %d    DCD    1680154682
        0x000018d8:    6572470a    .Gre    DCD    1701988106
        0x000018dc:    53206e65    en S    DCD    1394634341
        0x000018e0:    656b616e    nake    DCD    1701536110
        0x000018e4:    6f635320     Sco    DCD    1868780320
        0x000018e8:    203a6572    re:     DCD    540697970
        0x000018ec:    00006425    %d..    DCD    25637
        0x000018f0:    6572470a    .Gre    DCD    1701988106
        0x000018f4:    53206e65    en S    DCD    1394634341
        0x000018f8:    656b616e    nake    DCD    1701536110
        0x000018fc:    6c6f4320     Col    DCD    1819231008
        0x00001900:    6564696c    lide    DCD    1701079404
        0x00001904:    69772064    d wi    DCD    1769414756
        0x00001908:    62206874    th b    DCD    1646291060
        0x0000190c:    2179646f    ody!    DCD    561603695
        0x00001910:    6465520a    .Red    DCD    1684361738
        0x00001914:    616e5320     Sna    DCD    1634620192
        0x00001918:    5320656b    ke S    DCD    1394632043
        0x0000191c:    65726f63    core    DCD    1701998435
        0x00001920:    6425203a    : %d    DCD    1680154682
        0x00001924:    6572470a    .Gre    DCD    1701988106
        0x00001928:    53206e65    en S    DCD    1394634341
        0x0000192c:    656b616e    nake    DCD    1701536110
        0x00001930:    6f635320     Sco    DCD    1868780320
        0x00001934:    203a6572    re:     DCD    540697970
        0x00001938:    00006425    %d..    DCD    25637
        0x0000193c:    6465520a    .Red    DCD    1684361738
        0x00001940:    616e5320     Sna    DCD    1634620192
        0x00001944:    5720656b    ke W    DCD    1461740907
        0x00001948:    0a216e6f    on!.    DCD    169963119
        0x0000194c:    65657247    Gree    DCD    1701147207
        0x00001950:    6e53206e    n Sn    DCD    1850941550
        0x00001954:    20656b61    ake     DCD    543517537
        0x00001958:    20746968    hit     DCD    544500072
        0x0000195c:    68746977    with    DCD    1752459639
        0x00001960:    756f6220     bou    DCD    1970233888
        0x00001964:    7261646e    ndar    DCD    1918985326
        0x00001968:    520a2179    y!.R    DCD    1376395641
        0x0000196c:    53206465    ed S    DCD    1394631781
        0x00001970:    656b616e    nake    DCD    1701536110
        0x00001974:    6f635320     Sco    DCD    1868780320
        0x00001978:    203a6572    re:     DCD    540697970
        0x0000197c:    470a6425    %d.G    DCD    1191863333
        0x00001980:    6e656572    reen    DCD    1852138866
        0x00001984:    616e5320     Sna    DCD    1634620192
        0x00001988:    5320656b    ke S    DCD    1394632043
        0x0000198c:    65726f63    core    DCD    1701998435
        0x00001990:    6425203a    : %d    DCD    1680154682
        0x00001994:    00000000    ....    DCD    0
    Region$$Table$$Base
        0x00001998:    00001a08    ....    DCD    6664
        0x0000199c:    00001a08    ....    DCD    6664
        0x000019a0:    00000ec8    ....    DCD    3784
        0x000019a4:    000000c4    ....    DCD    196
    Region$$Table$$Limit

====================================

** Section #2

    Name        : ER_RW
    Type        : SHT_PROGBITS (0x00000001)
    Flags       : SHF_ALLOC + SHF_WRITE (0x00000003)
    Addr        : 0x000019a8
    File Offset : 6620 (0x19dc)
    Size        : 96 bytes (0x60)
    Link        : SHN_UNDEF
    Info        : 0
    Alignment   : 4
    Entry Size  : 0


====================================

** Section #3

    Name        : ER_ZI
    Type        : SHT_NOBITS (0x00000008)
    Flags       : SHF_ALLOC + SHF_WRITE (0x00000003)
    Addr        : 0x00001a08
    File Offset : 6716 (0x1a3c)
    Size        : 3784 bytes (0xec8)
    Link        : SHN_UNDEF
    Info        : 0
    Alignment   : 16
    Entry Size  : 0


====================================

** Section #4

    Name        : .debug_abbrev
    Type        : SHT_PROGBITS (0x00000001)
    Flags       : None (0x00000000)
    Addr        : 0x00000000
    File Offset : 6716 (0x1a3c)
    Size        : 1476 bytes (0x5c4)
    Link        : SHN_UNDEF
    Info        : 0
    Alignment   : 1
    Entry Size  : 0


====================================

** Section #5

    Name        : .debug_frame
    Type        : SHT_PROGBITS (0x00000001)
    Flags       : None (0x00000000)
    Addr        : 0x00000000
    File Offset : 8192 (0x2000)
    Size        : 1744 bytes (0x6d0)
    Link        : SHN_UNDEF
    Info        : 0
    Alignment   : 1
    Entry Size  : 0


====================================

** Section #6

    Name        : .debug_info
    Type        : SHT_PROGBITS (0x00000001)
    Flags       : None (0x00000000)
    Addr        : 0x00000000
    File Offset : 9936 (0x26d0)
    Size        : 8040 bytes (0x1f68)
    Link        : SHN_UNDEF
    Info        : 0
    Alignment   : 1
    Entry Size  : 0


====================================

** Section #7

    Name        : .debug_line
    Type        : SHT_PROGBITS (0x00000001)
    Flags       : None (0x00000000)
    Addr        : 0x00000000
    File Offset : 17976 (0x4638)
    Size        : 3592 bytes (0xe08)
    Link        : SHN_UNDEF
    Info        : 0
    Alignment   : 1
    Entry Size  : 0


====================================

** Section #8

    Name        : .debug_loc
    Type        : SHT_PROGBITS (0x00000001)
    Flags       : None (0x00000000)
    Addr        : 0x00000000
    File Offset : 21568 (0x5440)
    Size        : 1976 bytes (0x7b8)
    Link        : SHN_UNDEF
    Info        : 0
    Alignment   : 1
    Entry Size  : 0


====================================

** Section #9

    Name        : .debug_macinfo
    Type        : SHT_PROGBITS (0x00000001)
    Flags       : None (0x00000000)
    Addr        : 0x00000000
    File Offset : 23544 (0x5bf8)
    Size        : 7000 bytes (0x1b58)
    Link        : SHN_UNDEF
    Info        : 0
    Alignment   : 1
    Entry Size  : 0


====================================

** Section #10

    Name        : .debug_pubnames
    Type        : SHT_PROGBITS (0x00000001)
    Flags       : None (0x00000000)
    Addr        : 0x00000000
    File Offset : 30544 (0x7750)
    Size        : 706 bytes (0x2c2)
    Link        : SHN_UNDEF
    Info        : 0
    Alignment   : 1
    Entry Size  : 0


====================================

** Section #11

    Name        : .symtab
    Type        : SHT_SYMTAB (0x00000002)
    Flags       : None (0x00000000)
    Addr        : 0x00000000
    File Offset : 31252 (0x7a14)
    Size        : 5504 bytes (0x1580)
    Link        : Section 12 (.strtab)
    Info        : Last local symbol no = 219
    Alignment   : 4
    Entry Size  : 16


====================================

** Section #12

    Name        : .strtab
    Type        : SHT_STRTAB (0x00000003)
    Flags       : None (0x00000000)
    Addr        : 0x00000000
    File Offset : 36756 (0x8f94)
    Size        : 4712 bytes (0x1268)
    Link        : SHN_UNDEF
    Info        : 0
    Alignment   : 1
    Entry Size  : 0


====================================

** Section #13

    Name        : .note
    Type        : SHT_NOTE (0x00000007)
    Flags       : None (0x00000000)
    Addr        : 0x00000000
    File Offset : 41468 (0xa1fc)
    Size        : 28 bytes (0x1c)
    Link        : SHN_UNDEF
    Info        : 0
    Alignment   : 4
    Entry Size  : 0

        Section     Segment
    ====================================

              1           0
              2           0
              3           0

====================================

** Section #14

    Name        : .comment
    Type        : SHT_PROGBITS (0x00000001)
    Flags       : None (0x00000000)
    Addr        : 0x00000000
    File Offset : 41496 (0xa218)
    Size        : 5292 bytes (0x14ac)
    Link        : SHN_UNDEF
    Info        : 0
    Alignment   : 1
    Entry Size  : 0

    Component: ARM Compiler 5.06 update 6 (build 750) Tool: armlink [4d35ed]
    ArmLink --strict --callgraph --load_addr_map_info --map --symbols --xref --diag_suppress=9931 --ro_base=0x0 --cpu=Cortex-M0 --first=__Vectors --list=.\Listings\code.map --output=.\Objects\code.axf --entry=Reset_Handler --info=summarysizes,sizes,totals,unused,veneers

    C:\Keil_v5\ARM\ARMCC\Bin\..\lib\armlib\c_p.l
    C:\Keil_v5\ARM\ARMCC\Bin\..\lib\armlib\fz_ps.l
    C:\Keil_v5\ARM\ARMCC\Bin\..\lib\armlib\h_p.l
    C:\Keil_v5\ARM\ARMCC\Bin\..\lib\armlib\m_ps.l
    C:\Keil_v5\ARM\ARMCC\Bin\..\lib\armlib\vfpsupport.l
    Input Comments:
    
    main.o
    
    Component: ARM Compiler 5.06 update 6 (build 750) Tool: armlink [4d35ed]
    armlink --partial --no_add_relocs_to_undefined --no_generate_mapping_symbols --diag_suppress=9931,9931,6642 --cpu=Cortex-M0 --fpu=SoftVFP --output=.\objects\main.o --vfemode=force

    Input Comments:
    
    p688-3
    
    Component: ARM Compiler 5.06 update 6 (build 750) Tool: armasm [4d35ec]
    armasm --debug --diag_suppress=9931,9931,1602,1073 --cpu=Cortex-M0 --fpu=SoftVFP --apcs=/interwork/interwork --no_divide 
    main.o
    
    Component: ARM Compiler 5.06 update 6 (build 750) Tool: ArmCC [4d3637]
    ArmCC --debug -c -o.\objects\main.o --depend=.\objects\main.d --cpu=Cortex-M0 --apcs=interwork -O0 --diag_suppress=9931 -I..\Files\Software\core -I..\Files\Software\Application -I..\Files\Software\device -I.\RTE\_Target_1 -IC:\Users\adi_n\AppData\Local\Arm\Packs\ARM\CMSIS\5.9.0\CMSIS\Core\Include -IC:\Users\adi_n\AppData\Local\Arm\Packs\ARM\CMSIS\5.9.0\Device\ARM\ARMCM0\Include -D__EVAL -D__UVISION_VERSION=538 -D_RTE_ -DARMCM0 -D_RTE_ --omf_browse=.\objects\main.crf ..\Files\Software\Application\main.c
    
    
    
    
    
    cm0dsasm.o
    
    Component: ARM Compiler 5.06 update 6 (build 750) Tool: armasm [4d35ec]
    ArmAsm --debug --xref --diag_suppress=9931 --cpu=Cortex-M0 --apcs=interwork --depend=.\objects\cm0dsasm.d  -I..\Files\Software\device -I.\RTE\_Target_1 -IC:\Users\adi_n\AppData\Local\Arm\Packs\ARM\CMSIS\5.9.0\CMSIS\Core\Include -IC:\Users\a
    
    
    edk_driver.o
    
    Component: ARM Compiler 5.06 update 6 (build 750) Tool: armlink [4d35ed]
    armlink --partial --no_add_relocs_to_undefined --no_generate_mapping_symbols --diag_suppress=9931,9931,6642 --cpu=Cortex-M0 --fpu=SoftVFP --output=.\objects\edk_driver.o --vfemode=force

    Input Comments:
    
    p2d94-3
    
    Component: ARM Compiler 5.06 update 6 (build 750) Tool: armasm [4d35ec]
    armasm --debug --diag_suppress=9931,9931,1602,1073 --cpu=Cortex-M0 --fpu=SoftVFP --apcs=/interwork/interwork --no_divide 
    edk_driver.o
    
    Component: ARM Compiler 5.06 update 6 (build 750) Tool: ArmCC [4d3637]
    ArmCC --debug -c -o.\objects\edk_driver.o --depend=.\objects\edk_driver.d --cpu=Cortex-M0 --apcs=interwork -O0 --diag_suppress=9931 -I..\Files\Software\core -I..\Files\Software\Application -I..\Files\Software\device -I.\RTE\_Target_1 -IC:\Users\adi_n\AppData\Local\Arm\Packs\ARM\CMSIS\5.9.0\CMSIS\Core\Include -IC:\Users\adi_n\AppData\Local\Arm\Packs\ARM\CMSIS\5.9.0\Device\ARM\ARMCM0\Include -D__EVAL -D__UVISION_VERSION=538 -D_RTE_ -DARMCM0 -D_RTE_ --omf_browse=.\objects\edk_driver.crf ..\Files\Software\device\edk_driver.c
    
    
    
    
    
    edk_api.o
    
    Component: ARM Compiler 5.06 update 6 (build 750) Tool: armlink [4d35ed]
    armlink --partial --no_add_relocs_to_undefined --no_generate_mapping_symbols --diag_suppress=9931,9931,6642 --cpu=Cortex-M0 --fpu=SoftVFP --output=.\objects\edk_api.o --vfemode=force

    Input Comments:
    
    p33d8-3
    
    Component: ARM Compiler 5.06 update 6 (build 750) Tool: armasm [4d35ec]
    armasm --debug --diag_suppress=9931,9931,1602,1073 --cpu=Cortex-M0 --fpu=SoftVFP --apcs=/interwork/interwork --no_divide 
    edk_api.o
    
    Component: ARM Compiler 5.06 update 6 (build 750) Tool: ArmCC [4d3637]
    ArmCC --debug -c -o.\objects\edk_api.o --depend=.\objects\edk_api.d --cpu=Cortex-M0 --apcs=interwork -O0 --diag_suppress=9931 -I..\Files\Software\core -I..\Files\Software\Application -I..\Files\Software\device -I.\RTE\_Target_1 -IC:\Users\adi_n\AppData\Local\Arm\Packs\ARM\CMSIS\5.9.0\CMSIS\Core\Include -IC:\Users\adi_n\AppData\Local\Arm\Packs\ARM\CMSIS\5.9.0\Device\ARM\ARMCM0\Include -D__EVAL -D__UVISION_VERSION=538 -D_RTE_ -DARMCM0 -D_RTE_ --omf_browse=.\objects\edk_api.crf ..\Files\Software\device\edk_api.c
    
    
    
    retarget.o
    
    Component: ARM Compiler 5.06 update 6 (build 750) Tool: armlink [4d35ed]
    armlink --partial --no_add_relocs_to_undefined --no_generate_mapping_symbols --diag_suppress=9931,9931,6642 --cpu=Cortex-M0 --fpu=SoftVFP --output=.\objects\retarget.o --vfemode=force

    Input Comments:
    
    p4238-3
    
    Component: ARM Compiler 5.06 update 6 (build 750) Tool: armasm [4d35ec]
    armasm --debug --diag_suppress=9931,9931,1602,1073 --cpu=Cortex-M0 --fpu=SoftVFP --apcs=/interwork/interwork --no_divide 
    retarget.o
    
    Component: ARM Compiler 5.06 update 6 (build 750) Tool: ArmCC [4d3637]
    ArmCC --debug -c -o.\objects\retarget.o --depend=.\objects\retarget.d --cpu=Cortex-M0 --apcs=interwork -O0 --diag_suppress=9931 -I..\Files\Software\core -I..\Files\Software\Application -I..\Files\Software\device -I.\RTE\_Target_1 -IC:\Users\adi_n\AppData\Local\Arm\Packs\ARM\CMSIS\5.9.0\CMSIS\Core\Include -IC:\Users\adi_n\AppData\Local\Arm\Packs\ARM\CMSIS\5.9.0\Device\ARM\ARMCM0\Include -D__EVAL -D__UVISION_VERSION=538 -D_RTE_ -DARMCM0 -D_RTE_ --omf_browse=.\objects\retarget.crf ..\Files\Software\device\retarget.c
    
    
    
    
    
    
    
    

====================================

** Section #15

    Name        : .shstrtab
    Type        : SHT_STRTAB (0x00000003)
    Flags       : None (0x00000000)
    Addr        : 0x00000000
    File Offset : 46788 (0xb6c4)
    Size        : 156 bytes (0x9c)
    Link        : SHN_UNDEF
    Info        : 0
    Alignment   : 1
    Entry Size  : 0


====================================

